Certificate:
    Data:
        Version: 3 (0x2)
        Serial Number: 9573410140069116734 (0x84db95ccdff13b3e)
    Signature Algorithm: ecdsa-with-SHA256
        Issuer: C=FI, L=Helsinki, O=w1.fi, CN=Suite B 128-bit Root CA
        Validity
            Not Before: Jan 25 11:29:53 2015 GMT
            Not After : Jan 25 11:29:53 2016 GMT
        Subject: C=FI, O=w1.fi, CN=server.w1.fi
        Subject Public Key Info:
            Public Key Algorithm: id-ecPublicKey
                Public-Key: (256 bit)
                pub: 
                    04:be:5f:16:08:b2:0a:d6:f2:19:6f:14:19:ef:20:
                    f2:2b:3c:e0:be:8c:65:86:5f:95:c1:bb:90:36:ec:
                    dc:59:3a:ba:40:9a:9d:11:76:c7:80:5a:21:4c:fc:
                    c0:5f:19:52:c8:78:b8:e5:4c:fa:c9:6a:d1:fe:ea:
                    b6:3a:57:5c:99
                ASN1 OID: prime256v1
        X509v3 extensions:
            X509v3 Basic Constraints: critical
                CA:FALSE
            X509v3 Subject Key Identifier: 
                6E:21:26:96:72:29:39:BF:8B:EF:EB:65:CD:E0:4E:97:6F:1A:2C:E5
            X509v3 Authority Key Identifier: 
                keyid:FC:83:FA:4B:34:EB:19:5E:1C:7D:E5:85:EC:C7:FC:21:F5:E8:75:68

            X509v3 Subject Alternative Name: critical
                DNS:server.w1.fi
            X509v3 Extended Key Usage: critical
                TLS Web Server Authentication
            X509v3 Key Usage: 
                Digital Signature, Key Encipherment
    Signature Algorithm: ecdsa-with-SHA256
         30:44:02:20:47:b1:5e:57:ae:6c:0b:df:78:11:79:5c:b2:60:
         fd:0c:9c:37:18:19:fe:c1:b6:ca:f6:4f:62:63:13:ff:ff:64:
         02:20:07:1f:3b:1d:c7:d8:fe:ff:26:0b:68:d0:85:bc:01:15:
         62:e4:7f:f4:c7:e4:ad:d5:da:40:44:5a:0b:f5:72:9e
-----BEGIN CERTIFICATE-----
MIICDzCCAbagAwIBAgIJAITblczf8Ts+MAoGCCqGSM49BAMCMFIxCzAJBgNVBAYT
AkZJMREwDwYDVQQHDAhIZWxzaW5raTEOMAwGA1UECgwFdzEuZmkxIDAeBgNVBAMM
F1N1aXRlIEIgMTI4LWJpdCBSb290IENBMB4XDTE1MDEyNTExMjk1M1oXDTE2MDEy
NTExMjk1M1owNDELMAkGA1UEBhMCRkkxDjAMBgNVBAoMBXcxLmZpMRUwEwYDVQQD
DAxzZXJ2ZXIudzEuZmkwWTATBgcqhkjOPQIBBggqhkjOPQMBBwNCAAS+XxYIsgrW
8hlvFBnvIPIrPOC+jGWGX5XBu5A27NxZOrpAmp0RdseAWiFM/MBfGVLIeLjlTPrJ
atH+6rY6V1yZo4GSMIGPMAwGA1UdEwEB/wQCMAAwHQYDVR0OBBYEFG4hJpZyKTm/
i+/rZc3gTpdvGizlMB8GA1UdIwQYMBaAFPyD+ks06xleHH3lhezH/CH16HVoMBoG
A1UdEQEB/wQQMA6CDHNlcnZlci53MS5maTAWBgNVHSUBAf8EDDAKBggrBgEFBQcD
ATALBgNVHQ8EBAMCBaAwCgYIKoZIzj0EAwIDRwAwRAIgR7FeV65sC994EXlcsmD9
DJw3GBn+wbbK9k9iYxP//2QCIAcfOx3H2P7/Jgto0IW8ARVi5H/0x+St1dpARFoL
9XKe
-----END CERTIFICATE-----
