Certificate:
    Data:
        Version: 3 (0x2)
        Serial Number: 9573410140069116735 (0x84db95ccdff13b3f)
    Signature Algorithm: ecdsa-with-SHA256
        Issuer: C=FI, L=Helsinki, O=w1.fi, CN=Suite B 128-bit Root CA
        Validity
            Not Before: Jan 25 11:29:53 2015 GMT
            Not After : Jan 25 11:29:53 2016 GMT
        Subject: C=FI, O=w1.fi, CN=user
        Subject Public Key Info:
            Public Key Algorithm: id-ecPublicKey
                Public-Key: (256 bit)
                pub: 
                    04:9c:4d:ac:48:df:19:39:ab:5e:52:88:b7:02:8d:
                    15:7b:04:87:fb:57:1e:4d:ff:8d:92:22:69:a3:29:
                    8e:e9:4e:aa:d0:24:a5:1b:66:e9:75:9c:81:93:ee:
                    94:20:e0:fd:5a:20:a2:da:d3:7e:40:66:ef:3e:73:
                    eb:94:b7:c1:3a
                ASN1 OID: prime256v1
        X509v3 extensions:
            X509v3 Basic Constraints: 
                CA:FALSE
            X509v3 Subject Key Identifier: 
                89:28:76:9A:42:DB:B6:F8:36:97:63:8F:7D:0A:EA:0B:FE:66:2B:CD
            X509v3 Authority Key Identifier: 
                keyid:FC:83:FA:4B:34:EB:19:5E:1C:7D:E5:85:EC:C7:FC:21:F5:E8:75:68

            X509v3 Subject Alternative Name: 
                email:user@w1.fi
            X509v3 Extended Key Usage: 
                TLS Web Client Authentication
            X509v3 Key Usage: 
                Digital Signature, Key Encipherment
    Signature Algorithm: ecdsa-with-SHA256
         30:45:02:20:26:84:14:f6:50:ac:ed:da:88:27:6d:18:d5:b3:
         2c:c8:59:ea:2a:c3:ae:69:03:79:0d:66:5e:5f:a5:52:27:92:
         02:21:00:db:8d:fd:58:e5:22:9b:17:32:57:34:e9:2e:30:da:
         1d:77:4c:15:18:9b:7d:e4:5d:bc:64:cd:21:ff:57:df:16
-----BEGIN CERTIFICATE-----
MIIB/TCCAaOgAwIBAgIJAITblczf8Ts/MAoGCCqGSM49BAMCMFIxCzAJBgNVBAYT
AkZJMREwDwYDVQQHDAhIZWxzaW5raTEOMAwGA1UECgwFdzEuZmkxIDAeBgNVBAMM
F1N1aXRlIEIgMTI4LWJpdCBSb290IENBMB4XDTE1MDEyNTExMjk1M1oXDTE2MDEy
NTExMjk1M1owLDELMAkGA1UEBhMCRkkxDjAMBgNVBAoMBXcxLmZpMQ0wCwYDVQQD
DAR1c2VyMFkwEwYHKoZIzj0CAQYIKoZIzj0DAQcDQgAEnE2sSN8ZOateUoi3Ao0V
ewSH+1ceTf+NkiJpoymO6U6q0CSlG2bpdZyBk+6UIOD9WiCi2tN+QGbvPnPrlLfB
OqOBhzCBhDAJBgNVHRMEAjAAMB0GA1UdDgQWBBSJKHaaQtu2+DaXY499CuoL/mYr
zTAfBgNVHSMEGDAWgBT8g/pLNOsZXhx95YXsx/wh9eh1aDAVBgNVHREEDjAMgQp1
c2VyQHcxLmZpMBMGA1UdJQQMMAoGCCsGAQUFBwMCMAsGA1UdDwQEAwIFoDAKBggq
hkjOPQQDAgNIADBFAiAmhBT2UKzt2ognbRjVsyzIWeoqw65pA3kNZl5fpVInkgIh
ANuN/VjlIpsXMlc06S4w2h13TBUYm33kXbxkzSH/V98W
-----END CERTIFICATE-----
