Certificate:
    Data:
        Version: 3 (0x2)
        Serial Number: 9347590364512421239 (0x81b94fe92ea08577)
    Signature Algorithm: ecdsa-with-SHA384
        Issuer: C=FI, L=Helsinki, O=w1.fi, CN=Suite B 192-bit Root CA
        Validity
            Not Before: Jan 25 11:32:03 2015 GMT
            Not After : Jan 25 11:32:03 2016 GMT
        Subject: C=FI, O=w1.fi, CN=user
        Subject Public Key Info:
            Public Key Algorithm: id-ecPublicKey
                Public-Key: (384 bit)
                pub: 
                    04:c9:61:59:39:c2:8a:3f:2c:01:5d:fb:39:d1:02:
                    83:0e:0a:51:97:b5:f3:b6:c9:99:69:de:7e:a3:61:
                    4b:06:e3:c5:b4:dd:73:a5:61:dd:bf:68:22:55:b4:
                    6a:7a:4b:04:55:c6:e9:9f:61:3e:13:7a:31:23:fc:
                    ac:b8:e2:f3:a5:99:0f:69:6a:c3:5f:31:86:0d:92:
                    91:dc:01:62:7c:b1:5e:e6:3f:b2:cc:f5:85:64:b2:
                    4b:1f:86:89:fd:d7:e1
                ASN1 OID: secp384r1
        X509v3 extensions:
            X509v3 Basic Constraints: 
                CA:FALSE
            X509v3 Subject Key Identifier: 
                75:EA:7B:CE:8A:99:D2:E7:77:B4:3B:80:68:59:E9:B6:88:B2:FA:F6
            X509v3 Authority Key Identifier: 
                keyid:AE:05:BC:A7:22:7B:C7:D2:F9:FC:20:A6:5C:31:BB:41:4E:8F:6C:BD

            X509v3 Subject Alternative Name: 
                email:user@w1.fi
            X509v3 Extended Key Usage: 
                TLS Web Client Authentication
            X509v3 Key Usage: 
                Digital Signature, Key Encipherment
    Signature Algorithm: ecdsa-with-SHA384
         30:65:02:31:00:c2:b7:35:4e:5e:d1:da:7f:35:a0:ac:54:92:
         18:08:0d:9c:86:e9:4e:cf:3a:09:48:23:eb:4d:56:77:e5:d0:
         e7:b0:55:b3:0e:91:2d:f8:3e:1c:4e:0d:b7:32:dc:11:1b:02:
         30:49:c2:6b:63:39:3c:4b:d9:e9:8d:b9:ce:6e:8e:9f:88:43:
         03:e0:5f:7e:75:44:12:66:f8:c6:ae:8e:f1:da:10:02:36:8c:
         7b:a2:89:a0:05:3b:c6:39:d6:e1:7a:b7:85
-----BEGIN CERTIFICATE-----
MIICOjCCAcCgAwIBAgIJAIG5T+kuoIV3MAoGCCqGSM49BAMDMFIxCzAJBgNVBAYT
AkZJMREwDwYDVQQHDAhIZWxzaW5raTEOMAwGA1UECgwFdzEuZmkxIDAeBgNVBAMM
F1N1aXRlIEIgMTkyLWJpdCBSb290IENBMB4XDTE1MDEyNTExMzIwM1oXDTE2MDEy
NTExMzIwM1owLDELMAkGA1UEBhMCRkkxDjAMBgNVBAoMBXcxLmZpMQ0wCwYDVQQD
DAR1c2VyMHYwEAYHKoZIzj0CAQYFK4EEACIDYgAEyWFZOcKKPywBXfs50QKDDgpR
l7XztsmZad5+o2FLBuPFtN1zpWHdv2giVbRqeksEVcbpn2E+E3oxI/ysuOLzpZkP
aWrDXzGGDZKR3AFifLFe5j+yzPWFZLJLH4aJ/dfho4GHMIGEMAkGA1UdEwQCMAAw
HQYDVR0OBBYEFHXqe86KmdLnd7Q7gGhZ6baIsvr2MB8GA1UdIwQYMBaAFK4FvKci
e8fS+fwgplwxu0FOj2y9MBUGA1UdEQQOMAyBCnVzZXJAdzEuZmkwEwYDVR0lBAww
CgYIKwYBBQUHAwIwCwYDVR0PBAQDAgWgMAoGCCqGSM49BAMDA2gAMGUCMQDCtzVO
XtHafzWgrFSSGAgNnIbpTs86CUgj601Wd+XQ57BVsw6RLfg+HE4NtzLcERsCMEnC
a2M5PEvZ6Y25zm6On4hDA+BffnVEEmb4xq6O8doQAjaMe6KJoAU7xjnW4Xq3hQ==
-----END CERTIFICATE-----
