Certificate:
    Data:
        Version: 3 (0x2)
        Serial Number: 9347590364512421238 (0x81b94fe92ea08576)
    Signature Algorithm: ecdsa-with-SHA384
        Issuer: C=FI, L=Helsinki, O=w1.fi, CN=Suite B 192-bit Root CA
        Validity
            Not Before: Jan 25 11:32:03 2015 GMT
            Not After : Jan 25 11:32:03 2016 GMT
        Subject: C=FI, O=w1.fi, CN=server.w1.fi
        Subject Public Key Info:
            Public Key Algorithm: id-ecPublicKey
                Public-Key: (384 bit)
                pub: 
                    04:56:ab:5b:ad:d5:be:9c:b4:e1:41:90:43:a3:50:
                    b2:f7:56:32:45:3f:5e:60:d2:09:3e:b0:14:cc:06:
                    88:14:e5:64:4d:ed:0a:1d:fe:37:de:9b:99:38:3b:
                    b1:4a:61:93:40:6a:b0:c5:32:1d:b2:0c:c5:d9:bd:
                    1a:28:88:dc:8b:d0:01:f6:c2:4d:2a:cc:de:6e:9f:
                    4d:89:3a:df:50:ef:a4:d5:61:f9:44:f7:50:b9:0d:
                    3c:63:80:b3:a0:c4:1c
                ASN1 OID: secp384r1
        X509v3 extensions:
            X509v3 Basic Constraints: critical
                CA:FALSE
            X509v3 Subject Key Identifier: 
                19:D7:57:D0:3B:91:84:A4:AF:93:03:32:3C:AB:C4:F9:A7:B0:27:19
            X509v3 Authority Key Identifier: 
                keyid:AE:05:BC:A7:22:7B:C7:D2:F9:FC:20:A6:5C:31:BB:41:4E:8F:6C:BD

            X509v3 Subject Alternative Name: critical
                DNS:server.w1.fi
            X509v3 Extended Key Usage: critical
                TLS Web Server Authentication
            X509v3 Key Usage: 
                Digital Signature, Key Encipherment
    Signature Algorithm: ecdsa-with-SHA384
         30:65:02:30:79:68:37:af:eb:46:e8:77:35:13:77:d5:db:eb:
         f9:75:40:cd:d4:3d:0a:03:ec:67:a0:22:fe:65:f5:d7:ca:53:
         4a:85:f5:14:4b:41:f9:b9:98:a6:85:8b:ac:e0:c8:6c:02:31:
         00:83:12:02:be:93:2b:c2:00:74:ec:cb:fc:5a:8c:a6:5e:52:
         ee:20:76:3d:73:2b:fb:fe:60:4c:52:f3:bc:1e:4c:e8:f9:ea:
         f6:e2:f6:ca:c6:a8:3b:2d:9a:17:eb:4d:0a
-----BEGIN CERTIFICATE-----
MIICTTCCAdOgAwIBAgIJAIG5T+kuoIV2MAoGCCqGSM49BAMDMFIxCzAJBgNVBAYT
AkZJMREwDwYDVQQHDAhIZWxzaW5raTEOMAwGA1UECgwFdzEuZmkxIDAeBgNVBAMM
F1N1aXRlIEIgMTkyLWJpdCBSb290IENBMB4XDTE1MDEyNTExMzIwM1oXDTE2MDEy
NTExMzIwM1owNDELMAkGA1UEBhMCRkkxDjAMBgNVBAoMBXcxLmZpMRUwEwYDVQQD
DAxzZXJ2ZXIudzEuZmkwdjAQBgcqhkjOPQIBBgUrgQQAIgNiAARWq1ut1b6ctOFB
kEOjULL3VjJFP15g0gk+sBTMBogU5WRN7Qod/jfem5k4O7FKYZNAarDFMh2yDMXZ
vRooiNyL0AH2wk0qzN5un02JOt9Q76TVYflE91C5DTxjgLOgxByjgZIwgY8wDAYD
VR0TAQH/BAIwADAdBgNVHQ4EFgQUGddX0DuRhKSvkwMyPKvE+aewJxkwHwYDVR0j
BBgwFoAUrgW8pyJ7x9L5/CCmXDG7QU6PbL0wGgYDVR0RAQH/BBAwDoIMc2VydmVy
LncxLmZpMBYGA1UdJQEB/wQMMAoGCCsGAQUFBwMBMAsGA1UdDwQEAwIFoDAKBggq
hkjOPQQDAwNoADBlAjB5aDev60bodzUTd9Xb6/l1QM3UPQoD7GegIv5l9dfKU0qF
9RRLQfm5mKaFi6zgyGwCMQCDEgK+kyvCAHTsy/xajKZeUu4gdj1zK/v+YExS87we
TOj56vbi9srGqDstmhfrTQo=
-----END CERTIFICATE-----
