Certificate:
    Data:
        Version: 3 (0x2)
        Serial Number: 12505381161559820489 (0xad8c09e8fba288c9)
    Signature Algorithm: sha384WithRSAEncryption
        Issuer: C=FI, L=Helsinki, O=w1.fi, CN=Suite B RSA 3k Root CA
        Validity
            Not Before: Sep 17 18:16:40 2017 GMT
            Not After : Sep 17 18:16:40 2019 GMT
        Subject: C=FI, O=w1.fi, CN=user-rsa3072
        Subject Public Key Info:
            Public Key Algorithm: rsaEncryption
                Public-Key: (3072 bit)
                Modulus:
                    00:92:77:67:8e:44:34:83:a8:37:f9:a9:c4:72:5c:
                    71:72:9d:35:1d:3d:8c:34:22:5c:24:f8:87:81:de:
                    de:ac:a5:93:77:c5:38:a4:82:9c:8c:06:9b:14:8b:
                    52:09:32:4c:31:c5:f8:e9:2f:64:8a:39:0a:70:9e:
                    4e:8a:9c:bc:a5:ab:78:18:52:44:75:fe:c3:00:61:
                    e7:1f:45:c0:12:72:e4:38:9e:28:9d:f6:76:60:70:
                    b3:7b:11:ca:90:98:2a:ea:26:c0:5c:ae:a9:12:cc:
                    52:11:a6:02:ac:e8:59:56:7a:a8:93:ec:fd:06:ee:
                    ac:e8:af:17:68:57:4f:39:ca:d4:48:49:8a:b4:8d:
                    3e:21:51:a3:96:e7:9f:24:e5:f5:10:e7:36:fe:8e:
                    33:b2:7d:22:66:8f:42:65:cf:0f:4f:cc:a3:24:0f:
                    e3:ba:98:89:35:a7:54:99:ec:81:47:c4:2f:b2:3b:
                    3b:b2:4c:ce:a4:a8:5a:66:10:40:8e:0d:7d:67:d8:
                    ed:1a:fd:e5:61:16:db:f5:4c:73:40:39:e3:7d:6f:
                    27:26:08:68:18:02:df:3b:5a:04:0a:08:c5:53:bb:
                    1d:00:91:6c:f6:38:2a:f0:aa:9f:2b:36:6e:95:24:
                    a7:1a:84:d8:5c:6a:f8:d5:3f:62:0f:20:4b:b7:96:
                    c6:c2:1b:f8:81:64:13:15:7a:9b:5d:98:ee:0f:d9:
                    73:37:d5:3c:9f:35:52:93:df:72:9d:89:d4:9f:20:
                    f2:13:85:12:00:7c:23:27:ce:f9:dd:e2:b7:82:09:
                    a2:fa:26:54:22:c7:fd:b4:fa:1a:d3:6d:29:8f:1b:
                    67:13:2f:d8:e2:f0:5c:75:9e:aa:79:fc:c1:b7:48:
                    5d:08:12:01:37:78:13:f9:53:37:3a:a8:21:38:e7:
                    5f:74:fb:85:53:6b:21:6b:82:c9:a5:41:2c:a3:39:
                    74:14:a0:5c:03:c8:13:17:55:a6:15:45:52:3c:b9:
                    b9:3f:fe:d9:a8:14:6f:20:c5:21
                Exponent: 65537 (0x10001)
        X509v3 extensions:
            X509v3 Basic Constraints: 
                CA:FALSE
            X509v3 Subject Key Identifier: 
                B1:4F:36:17:24:40:AD:6B:05:33:87:C4:AD:4F:4A:53:AF:F5:D6:23
            X509v3 Authority Key Identifier: 
                keyid:21:F7:EF:DA:C3:34:3A:ED:CD:D5:50:C0:B3:BA:09:EE:3F:80:D7:70

            X509v3 Subject Alternative Name: 
                email:user-rsa3072@w1.fi
            X509v3 Extended Key Usage: 
                TLS Web Client Authentication
            X509v3 Key Usage: 
                Digital Signature, Key Encipherment
    Signature Algorithm: sha384WithRSAEncryption
         82:14:fb:75:bc:ee:a9:e9:9d:fa:bf:af:19:ef:d5:80:2d:c7:
         47:52:bd:a5:68:f3:38:5b:47:45:a0:54:53:48:14:1a:28:af:
         10:f7:a5:a8:4e:b6:86:12:15:b0:3f:5e:df:03:c8:d8:ae:f0:
         eb:67:7e:ad:6f:93:8a:bd:16:a2:5f:70:ba:4c:61:62:d5:23:
         f5:bc:a6:a6:84:25:05:f9:15:54:54:05:22:c7:28:18:df:76:
         18:f8:87:fe:50:81:7f:22:9b:4e:2e:34:62:f1:10:8a:df:78:
         f8:b7:0e:e7:fe:86:46:e7:52:e4:88:85:48:d3:c9:70:7e:77:
         db:1f:d1:ab:b9:34:d5:54:17:9a:f5:6b:6a:2c:1d:71:e6:ee:
         17:76:ed:6f:af:1e:47:48:33:38:43:9f:c5:3d:ab:c6:8b:03:
         ec:bb:30:9f:a3:32:69:38:3f:74:76:bd:4b:39:15:5e:22:c6:
         f6:e7:fb:2b:8f:f9:8a:60:00:6f:08:04:a8:a9:6f:78:ba:16:
         a5:5f:82:82:cf:a9:9a:d3:b8:8e:44:71:09:3f:ae:0f:0f:f9:
         a6:68:20:e9:65:a7:5a:16:b7:4b:12:53:77:77:f8:cf:34:e7:
         49:cb:1d:e8:ee:82:70:50:3a:30:1a:fe:71:ae:b2:13:95:6e:
         3c:c2:f9:49:1c:34:15:86:a2:b4:fa:4d:08:4a:92:40:66:bc:
         db:76:84:d2:5e:03:4c:9e:62:78:9d:01:60:db:35:be:e3:3a:
         29:15:87:64:44:0d:8f:78:c4:ce:cc:c6:68:8d:c3:ea:42:86:
         14:de:26:26:25:1d:02:fb:e5:b9:be:8d:44:7c:75:a4:fe:13:
         63:cb:94:8f:5a:8c:86:e5:4c:fd:05:d1:3b:2f:91:9b:bb:03:
         13:71:f0:d7:b8:7f:a1:ee:4e:5b:a2:1c:22:d4:38:7a:16:62:
         50:11:5e:ab:23:14:a7:a7:5e:24:4a:0c:20:54:8b:05:56:4f:
         d0:8c:c0:2d:12:ca
-----BEGIN CERTIFICATE-----
MIIEmDCCAwCgAwIBAgIJAK2MCej7oojJMA0GCSqGSIb3DQEBDAUAMFExCzAJBgNV
BAYTAkZJMREwDwYDVQQHDAhIZWxzaW5raTEOMAwGA1UECgwFdzEuZmkxHzAdBgNV
BAMMFlN1aXRlIEIgUlNBIDNrIFJvb3QgQ0EwHhcNMTcwOTE3MTgxNjQwWhcNMTkw
OTE3MTgxNjQwWjA0MQswCQYDVQQGEwJGSTEOMAwGA1UECgwFdzEuZmkxFTATBgNV
BAMMDHVzZXItcnNhMzA3MjCCAaIwDQYJKoZIhvcNAQEBBQADggGPADCCAYoCggGB
AJJ3Z45ENIOoN/mpxHJccXKdNR09jDQiXCT4h4He3qylk3fFOKSCnIwGmxSLUgky
TDHF+OkvZIo5CnCeToqcvKWreBhSRHX+wwBh5x9FwBJy5DieKJ32dmBws3sRypCY
KuomwFyuqRLMUhGmAqzoWVZ6qJPs/QburOivF2hXTznK1EhJirSNPiFRo5bnnyTl
9RDnNv6OM7J9ImaPQmXPD0/MoyQP47qYiTWnVJnsgUfEL7I7O7JMzqSoWmYQQI4N
fWfY7Rr95WEW2/VMc0A5431vJyYIaBgC3ztaBAoIxVO7HQCRbPY4KvCqnys2bpUk
pxqE2Fxq+NU/Yg8gS7eWxsIb+IFkExV6m12Y7g/ZczfVPJ81UpPfcp2J1J8g8hOF
EgB8IyfO+d3it4IJovomVCLH/bT6GtNtKY8bZxMv2OLwXHWeqnn8wbdIXQgSATd4
E/lTNzqoITjnX3T7hVNrIWuCyaVBLKM5dBSgXAPIExdVphVFUjy5uT/+2agUbyDF
IQIDAQABo4GPMIGMMAkGA1UdEwQCMAAwHQYDVR0OBBYEFLFPNhckQK1rBTOHxK1P
SlOv9dYjMB8GA1UdIwQYMBaAFCH379rDNDrtzdVQwLO6Ce4/gNdwMB0GA1UdEQQW
MBSBEnVzZXItcnNhMzA3MkB3MS5maTATBgNVHSUEDDAKBggrBgEFBQcDAjALBgNV
HQ8EBAMCBaAwDQYJKoZIhvcNAQEMBQADggGBAIIU+3W87qnpnfq/rxnv1YAtx0dS
vaVo8zhbR0WgVFNIFBoorxD3pahOtoYSFbA/Xt8DyNiu8Otnfq1vk4q9FqJfcLpM
YWLVI/W8pqaEJQX5FVRUBSLHKBjfdhj4h/5QgX8im04uNGLxEIrfePi3Duf+hkbn
UuSIhUjTyXB+d9sf0au5NNVUF5r1a2osHXHm7hd27W+vHkdIMzhDn8U9q8aLA+y7
MJ+jMmk4P3R2vUs5FV4ixvbn+yuP+YpgAG8IBKipb3i6FqVfgoLPqZrTuI5EcQk/
rg8P+aZoIOllp1oWt0sSU3d3+M8050nLHejugnBQOjAa/nGushOVbjzC+UkcNBWG
orT6TQhKkkBmvNt2hNJeA0yeYnidAWDbNb7jOikVh2REDY94xM7MxmiNw+pChhTe
JiYlHQL75bm+jUR8daT+E2PLlI9ajIblTP0F0TsvkZu7AxNx8Ne4f6HuTluiHCLU
OHoWYlARXqsjFKenXiRKDCBUiwVWT9CMwC0Syg==
-----END CERTIFICATE-----
