Certificate:
    Data:
        Version: 3 (0x2)
        Serial Number: 12505381161559820488 (0xad8c09e8fba288c8)
    Signature Algorithm: sha384WithRSAEncryption
        Issuer: C=FI, L=Helsinki, O=w1.fi, CN=Suite B RSA 3k Root CA
        Validity
            Not Before: Sep 17 18:16:40 2017 GMT
            Not After : Sep 17 18:16:40 2019 GMT
        Subject: C=FI, O=w1.fi, CN=rsa3072.server.w1.fi
        Subject Public Key Info:
            Public Key Algorithm: rsaEncryption
                Public-Key: (3072 bit)
                Modulus:
                    00:fe:a9:5c:59:8f:aa:80:cb:b8:4a:89:f9:3a:e8:
                    7d:24:51:b8:f2:05:c6:42:e0:68:b5:a4:f1:7e:8a:
                    31:a2:e0:0c:58:c5:80:20:cb:20:f0:0e:c1:6b:4d:
                    e1:d7:eb:cc:45:48:c9:b0:0f:8f:ef:80:db:1b:60:
                    02:af:ef:e8:0a:29:c8:04:df:70:92:e9:f1:dc:6a:
                    47:3b:5a:6f:10:e6:19:4d:93:92:d0:0a:8e:a2:4d:
                    32:9f:13:c8:34:6c:1a:4c:ec:a4:ed:89:2a:03:fb:
                    18:0d:7f:0d:de:3e:7f:d8:5d:27:a5:e1:7b:62:63:
                    71:61:45:52:f9:47:10:1d:28:c2:5d:73:fb:9d:03:
                    68:bf:6d:a4:12:12:74:c7:d0:b8:87:43:b3:67:87:
                    ce:6e:7b:58:1f:2f:32:eb:10:1f:e7:74:5c:3a:d9:
                    8c:18:c8:04:95:6b:e3:3b:25:4c:0a:db:99:f3:59:
                    b0:8e:7a:de:fa:e4:db:50:15:90:a2:30:e2:8a:c6:
                    a9:06:30:e3:d7:29:dd:26:a8:95:6e:6e:f5:c4:42:
                    d0:f7:7e:40:4d:3d:fd:ad:2f:cf:40:dd:d4:c0:6b:
                    80:a2:34:7e:05:2f:bf:32:44:0b:d4:78:6d:2a:12:
                    08:7c:84:b4:4d:51:5a:e5:84:6e:17:26:43:8c:83:
                    6b:16:f3:5f:fa:b3:9f:84:d3:2b:ab:f3:3e:2c:23:
                    65:b9:11:76:e1:85:12:ce:bb:03:38:59:82:bf:4c:
                    77:ba:3b:90:51:9c:67:76:b0:1e:74:1e:4c:c8:b1:
                    35:d6:37:29:dc:7e:c3:89:cc:86:9e:08:31:9c:70:
                    ea:5a:6c:87:92:53:eb:99:fb:33:d2:32:f1:81:31:
                    78:a0:c9:7d:6d:d9:6b:07:fa:c8:4a:67:57:2c:8c:
                    a6:ce:e5:7e:36:95:f1:09:bd:df:bf:c8:53:3d:21:
                    67:fd:93:cb:b2:7a:b5:56:61:9e:2f:ce:69:fa:fa:
                    56:0a:6b:9c:69:78:f7:4e:54:73
                Exponent: 65537 (0x10001)
        X509v3 extensions:
            X509v3 Basic Constraints: critical
                CA:FALSE
            X509v3 Subject Key Identifier: 
                82:D7:75:95:94:9E:35:F7:1F:91:6D:37:9F:26:4F:3D:9D:C1:6E:96
            X509v3 Authority Key Identifier: 
                keyid:21:F7:EF:DA:C3:34:3A:ED:CD:D5:50:C0:B3:BA:09:EE:3F:80:D7:70

            X509v3 Subject Alternative Name: critical
                DNS:rsa3072.server.w1.fi
            X509v3 Extended Key Usage: critical
                TLS Web Server Authentication
            X509v3 Key Usage: 
                Digital Signature, Key Encipherment
    Signature Algorithm: sha384WithRSAEncryption
         55:60:59:3f:3b:85:7c:d2:95:9b:c0:00:fb:a8:57:c6:02:41:
         7b:2c:b5:fd:e0:a6:35:1c:18:f8:0f:d6:f7:f4:0c:01:7d:7c:
         a4:cc:80:11:73:5b:06:03:f0:25:58:46:0b:2c:50:8e:80:5a:
         f4:49:df:69:ca:8a:de:7c:00:5d:3b:5d:45:f8:c9:19:f8:e1:
         ab:01:6b:ee:49:1f:c2:e3:3e:f6:a2:fa:4e:5d:b9:6f:93:2b:
         cc:b8:77:52:ae:8c:22:a1:53:f2:98:d0:df:b1:9b:27:ea:32:
         76:2d:fb:4c:8a:04:32:4d:aa:07:57:ad:c7:3f:d1:86:c0:71:
         05:35:c4:6e:e3:b8:a0:63:06:6b:e8:0e:50:4b:8c:60:3a:a6:
         84:ae:da:ab:b8:7a:7b:20:7a:c5:74:9b:bf:41:a9:b8:d8:34:
         20:56:35:86:60:d0:43:fa:06:a0:b7:b1:49:f3:02:f1:cf:72:
         20:8d:9a:48:6b:db:14:30:e3:21:a4:6f:87:08:d8:95:66:e3:
         b6:7e:15:e8:44:03:f3:92:b8:84:54:ba:af:c6:ce:7d:32:85:
         1f:a7:54:40:86:4e:93:89:73:e5:18:ea:49:4a:9d:80:78:6d:
         2e:d3:bf:9c:a9:75:09:3c:b7:33:36:ce:20:81:df:7e:ca:50:
         0d:c7:b9:91:82:5d:3b:25:d3:0b:ee:bb:a8:84:fc:79:ce:c1:
         1f:af:d3:df:34:f6:a0:50:3d:4b:1c:b4:91:1b:b1:5a:d2:27:
         44:4e:0e:20:f1:b3:8c:7f:08:44:27:c8:56:0a:0b:b9:aa:f7:
         4d:62:5d:35:ef:06:44:a2:2d:35:8a:66:8c:1f:c9:c2:89:cb:
         7d:38:54:84:5c:c4:96:3d:11:d1:2c:d2:98:9d:b7:4f:1c:4f:
         e9:37:80:4f:25:6b:3a:29:1c:55:52:56:23:6e:4e:b6:74:d3:
         cd:0a:1d:b7:24:f2:41:24:8a:05:ad:e0:d3:8f:fc:c5:bd:a7:
         bc:8e:e5:7f:0b:d7
-----BEGIN CERTIFICATE-----
MIIEqzCCAxOgAwIBAgIJAK2MCej7oojIMA0GCSqGSIb3DQEBDAUAMFExCzAJBgNV
BAYTAkZJMREwDwYDVQQHDAhIZWxzaW5raTEOMAwGA1UECgwFdzEuZmkxHzAdBgNV
BAMMFlN1aXRlIEIgUlNBIDNrIFJvb3QgQ0EwHhcNMTcwOTE3MTgxNjQwWhcNMTkw
OTE3MTgxNjQwWjA8MQswCQYDVQQGEwJGSTEOMAwGA1UECgwFdzEuZmkxHTAbBgNV
BAMMFHJzYTMwNzIuc2VydmVyLncxLmZpMIIBojANBgkqhkiG9w0BAQEFAAOCAY8A
MIIBigKCAYEA/qlcWY+qgMu4Son5Ouh9JFG48gXGQuBotaTxfooxouAMWMWAIMsg
8A7Ba03h1+vMRUjJsA+P74DbG2ACr+/oCinIBN9wkunx3GpHO1pvEOYZTZOS0AqO
ok0ynxPINGwaTOyk7YkqA/sYDX8N3j5/2F0npeF7YmNxYUVS+UcQHSjCXXP7nQNo
v22kEhJ0x9C4h0OzZ4fObntYHy8y6xAf53RcOtmMGMgElWvjOyVMCtuZ81mwjnre
+uTbUBWQojDiisapBjDj1yndJqiVbm71xELQ935ATT39rS/PQN3UwGuAojR+BS+/
MkQL1HhtKhIIfIS0TVFa5YRuFyZDjINrFvNf+rOfhNMrq/M+LCNluRF24YUSzrsD
OFmCv0x3ujuQUZxndrAedB5MyLE11jcp3H7DicyGnggxnHDqWmyHklPrmfsz0jLx
gTF4oMl9bdlrB/rISmdXLIymzuV+NpXxCb3fv8hTPSFn/ZPLsnq1VmGeL85p+vpW
CmucaXj3TlRzAgMBAAGjgZowgZcwDAYDVR0TAQH/BAIwADAdBgNVHQ4EFgQUgtd1
lZSeNfcfkW03nyZPPZ3BbpYwHwYDVR0jBBgwFoAUIffv2sM0Ou3N1VDAs7oJ7j+A
13AwIgYDVR0RAQH/BBgwFoIUcnNhMzA3Mi5zZXJ2ZXIudzEuZmkwFgYDVR0lAQH/
BAwwCgYIKwYBBQUHAwEwCwYDVR0PBAQDAgWgMA0GCSqGSIb3DQEBDAUAA4IBgQBV
YFk/O4V80pWbwAD7qFfGAkF7LLX94KY1HBj4D9b39AwBfXykzIARc1sGA/AlWEYL
LFCOgFr0Sd9pyorefABdO11F+MkZ+OGrAWvuSR/C4z72ovpOXblvkyvMuHdSrowi
oVPymNDfsZsn6jJ2LftMigQyTaoHV63HP9GGwHEFNcRu47igYwZr6A5QS4xgOqaE
rtqruHp7IHrFdJu/Qam42DQgVjWGYNBD+gagt7FJ8wLxz3IgjZpIa9sUMOMhpG+H
CNiVZuO2fhXoRAPzkriEVLqvxs59MoUfp1RAhk6TiXPlGOpJSp2AeG0u07+cqXUJ
PLczNs4ggd9+ylANx7mRgl07JdML7ruohPx5zsEfr9PfNPagUD1LHLSRG7Fa0idE
Tg4g8bOMfwhEJ8hWCgu5qvdNYl017wZEoi01imaMH8nCict9OFSEXMSWPRHRLNKY
nbdPHE/pN4BPJWs6KRxVUlYjbk62dNPNCh23JPJBJIoFreDTj/zFvae8juV/C9c=
-----END CERTIFICATE-----
