Certificate:
    Data:
        Version: 3 (0x2)
        Serial Number: 15624081837803162900 (0xd8d3e3a6cbe3cd14)
    Signature Algorithm: sha256WithRSAEncryption
        Issuer: C=FI, O=w1.fi, CN=Root CA
        Validity
            Not Before: Oct  1 15:42:04 2017 GMT
            Not After : Oct  1 15:42:04 2018 GMT
        Subject: C=FI, O=w1.fi, CN=server5.w1.fi
        Subject Public Key Info:
            Public Key Algorithm: rsaEncryption
                Public-Key: (1024 bit)
                Modulus:
                    00:a3:99:e9:e2:e1:17:60:3b:70:34:1a:74:5c:46:
                    e3:b8:bd:bb:aa:c9:f3:ee:fb:12:30:a0:69:c3:74:
                    38:80:3a:ba:23:52:c7:c1:6a:cf:ba:dd:41:e3:d2:
                    69:35:a4:a6:60:6c:31:1f:85:bd:56:6c:7b:09:63:
                    cd:a7:51:6b:84:40:90:77:7e:97:68:7b:38:b5:c4:
                    15:3b:74:37:34:28:ba:7a:e2:d7:84:53:78:76:4d:
                    16:b7:b8:df:09:72:e7:87:26:74:2c:04:ca:c5:ce:
                    29:f5:b4:ce:db:28:eb:45:47:42:8f:ed:88:5a:a3:
                    23:49:9b:7b:bc:39:e1:01:53
                Exponent: 65537 (0x10001)
        X509v3 extensions:
            X509v3 Basic Constraints: 
                CA:FALSE
            X509v3 Subject Key Identifier: 
                33:16:9D:3B:17:15:82:2B:34:6E:38:E8:CC:22:BF:49:A7:5E:2A:2B
            X509v3 Authority Key Identifier: 
                keyid:B8:92:DE:FD:8A:18:B3:30:C3:9F:55:F3:33:5D:B4:C8:29:8A:41:14

            Authority Information Access: 
                OCSP - URI:http://server.w1.fi:8888/

            X509v3 Extended Key Usage: 
                TLS Web Client Authentication
    Signature Algorithm: sha256WithRSAEncryption
         1d:31:a8:51:d5:36:37:2c:e8:9f:00:62:c4:ad:2d:9d:79:9d:
         85:3f:3e:3e:18:d3:d2:47:85:dd:b2:e0:e7:ae:bd:33:b6:1f:
         02:7c:2a:cd:af:d4:24:66:5d:58:35:aa:14:19:a6:d3:bd:6a:
         51:f8:a9:ba:ef:0d:7e:83:6a:8e:d1:82:4f:ac:ab:e7:b7:dd:
         23:22:2b:3a:72:c8:2f:cb:11:4c:49:b1:44:cc:e9:3d:52:28:
         82:12:75:c3:ef:1d:08:a4:bf:01:84:24:78:9f:2a:c3:1a:5c:
         e5:c9:89:c2:1e:25:04:5a:50:2b:ef:b2:2e:59:2b:19:8a:f7:
         dc:8d
-----BEGIN CERTIFICATE-----
MIICfTCCAeagAwIBAgIJANjT46bL480UMA0GCSqGSIb3DQEBCwUAMC8xCzAJBgNV
BAYTAkZJMQ4wDAYDVQQKDAV3MS5maTEQMA4GA1UEAwwHUm9vdCBDQTAeFw0xNzEw
MDExNTQyMDRaFw0xODEwMDExNTQyMDRaMDUxCzAJBgNVBAYTAkZJMQ4wDAYDVQQK
DAV3MS5maTEWMBQGA1UEAwwNc2VydmVyNS53MS5maTCBnzANBgkqhkiG9w0BAQEF
AAOBjQAwgYkCgYEAo5np4uEXYDtwNBp0XEbjuL27qsnz7vsSMKBpw3Q4gDq6I1LH
wWrPut1B49JpNaSmYGwxH4W9Vmx7CWPNp1FrhECQd36XaHs4tcQVO3Q3NCi6euLX
hFN4dk0Wt7jfCXLnhyZ0LATKxc4p9bTO2yjrRUdCj+2IWqMjSZt7vDnhAVMCAwEA
AaOBmjCBlzAJBgNVHRMEAjAAMB0GA1UdDgQWBBQzFp07FxWCKzRuOOjMIr9Jp14q
KzAfBgNVHSMEGDAWgBS4kt79ihizMMOfVfMzXbTIKYpBFDA1BggrBgEFBQcBAQQp
MCcwJQYIKwYBBQUHMAGGGWh0dHA6Ly9zZXJ2ZXIudzEuZmk6ODg4OC8wEwYDVR0l
BAwwCgYIKwYBBQUHAwIwDQYJKoZIhvcNAQELBQADgYEAHTGoUdU2NyzonwBixK0t
nXmdhT8+PhjT0keF3bLg5669M7YfAnwqza/UJGZdWDWqFBmm071qUfipuu8NfoNq
jtGCT6yr57fdIyIrOnLIL8sRTEmxRMzpPVIoghJ1w+8dCKS/AYQkeJ8qwxpc5cmJ
wh4lBFpQK++yLlkrGYr33I0=
-----END CERTIFICATE-----
