Certificate:
    Data:
        Version: 3 (0x2)
        Serial Number: 15624081837803162898 (0xd8d3e3a6cbe3cd12)
    Signature Algorithm: sha256WithRSAEncryption
        Issuer: C=FI, O=w1.fi, CN=Root CA
        Validity
            Not Before: Oct  1 15:42:04 2017 GMT
            Not After : Oct  1 15:42:04 2018 GMT
        Subject: C=FI, O=w1.fi, CN=server.w1.fi
        Subject Public Key Info:
            Public Key Algorithm: rsaEncryption
                Public-Key: (1024 bit)
                Modulus:
                    00:ba:a0:77:55:22:14:85:55:65:9b:64:2c:ad:ed:
                    9b:dd:65:31:c9:da:60:50:ce:38:d6:34:dc:e8:bc:
                    1b:9e:30:e7:12:e3:53:6c:c9:ed:48:03:79:81:69:
                    98:ce:8a:b8:77:47:36:45:cf:c6:e0:f1:7b:1e:71:
                    89:54:f7:01:cc:22:ad:a0:42:b1:a8:35:9e:60:aa:
                    3a:98:51:d0:ff:1f:ee:be:8d:0a:63:fb:a2:39:17:
                    f2:64:61:f6:65:02:32:79:74:e1:9f:d1:89:65:55:
                    a9:c3:20:9e:bf:69:56:b3:f7:4f:3f:a9:54:c2:da:
                    8f:3c:af:f2:75:54:fa:7e:81
                Exponent: 65537 (0x10001)
        X509v3 extensions:
            X509v3 Basic Constraints: 
                CA:FALSE
            X509v3 Subject Key Identifier: 
                31:4F:10:5C:67:9F:BE:4E:88:D6:DC:C5:AB:9E:12:88:86:69:02:4F
            X509v3 Authority Key Identifier: 
                keyid:B8:92:DE:FD:8A:18:B3:30:C3:9F:55:F3:33:5D:B4:C8:29:8A:41:14

            Authority Information Access: 
                OCSP - URI:http://server.w1.fi:8888/

            X509v3 Subject Alternative Name: 
                DNS:server.w1.fi
            X509v3 Extended Key Usage: 
                TLS Web Server Authentication
    Signature Algorithm: sha256WithRSAEncryption
         49:e5:e2:10:b5:23:63:1e:7f:00:8c:29:21:a4:9e:9b:da:63:
         d8:f6:54:35:de:c9:fb:b7:94:bd:fa:23:7c:7f:87:cc:d5:72:
         c0:ad:8f:04:97:cf:da:11:86:6a:a2:1a:a7:6f:bc:a1:8c:e5:
         27:b8:da:f0:3f:cc:da:8f:d3:12:f3:d2:2d:33:84:e1:be:ee:
         df:91:4e:9a:d2:f5:a4:6a:f0:ab:85:95:63:ed:a1:c6:9d:eb:
         ad:09:19:24:2b:f6:4c:b0:c6:e2:9c:66:e6:9f:93:d0:af:ec:
         da:82:40:ea:c5:80:40:98:a1:87:15:ed:46:6e:ca:49:8c:fb:
         8b:89
-----BEGIN CERTIFICATE-----
MIIClTCCAf6gAwIBAgIJANjT46bL480SMA0GCSqGSIb3DQEBCwUAMC8xCzAJBgNV
BAYTAkZJMQ4wDAYDVQQKDAV3MS5maTEQMA4GA1UEAwwHUm9vdCBDQTAeFw0xNzEw
MDExNTQyMDRaFw0xODEwMDExNTQyMDRaMDQxCzAJBgNVBAYTAkZJMQ4wDAYDVQQK
DAV3MS5maTEVMBMGA1UEAwwMc2VydmVyLncxLmZpMIGfMA0GCSqGSIb3DQEBAQUA
A4GNADCBiQKBgQC6oHdVIhSFVWWbZCyt7ZvdZTHJ2mBQzjjWNNzovBueMOcS41Ns
ye1IA3mBaZjOirh3RzZFz8bg8XsecYlU9wHMIq2gQrGoNZ5gqjqYUdD/H+6+jQpj
+6I5F/JkYfZlAjJ5dOGf0YllVanDIJ6/aVaz908/qVTC2o88r/J1VPp+gQIDAQAB
o4GzMIGwMAkGA1UdEwQCMAAwHQYDVR0OBBYEFDFPEFxnn75OiNbcxaueEoiGaQJP
MB8GA1UdIwQYMBaAFLiS3v2KGLMww59V8zNdtMgpikEUMDUGCCsGAQUFBwEBBCkw
JzAlBggrBgEFBQcwAYYZaHR0cDovL3NlcnZlci53MS5maTo4ODg4LzAXBgNVHREE
EDAOggxzZXJ2ZXIudzEuZmkwEwYDVR0lBAwwCgYIKwYBBQUHAwEwDQYJKoZIhvcN
AQELBQADgYEASeXiELUjYx5/AIwpIaSem9pj2PZUNd7J+7eUvfojfH+HzNVywK2P
BJfP2hGGaqIap2+8oYzlJ7ja8D/M2o/TEvPSLTOE4b7u35FOmtL1pGrwq4WVY+2h
xp3rrQkZJCv2TLDG4pxm5p+T0K/s2oJA6sWAQJihhxXtRm7KSYz7i4k=
-----END CERTIFICATE-----
