Certificate:
    Data:
        Version: 3 (0x2)
        Serial Number: 15624081837803162851 (0xd8d3e3a6cbe3cce3)
    Signature Algorithm: sha256WithRSAEncryption
        Issuer: C=FI, O=w1.fi, CN=Root CA
        Validity
            Not Before: Feb 19 16:37:01 2016 GMT
            Not After : Feb 18 16:37:01 2017 GMT
        Subject: C=FI, O=w1.fi, CN=server5.w1.fi
        Subject Public Key Info:
            Public Key Algorithm: rsaEncryption
                Public-Key: (1024 bit)
                Modulus:
                    00:a3:99:e9:e2:e1:17:60:3b:70:34:1a:74:5c:46:
                    e3:b8:bd:bb:aa:c9:f3:ee:fb:12:30:a0:69:c3:74:
                    38:80:3a:ba:23:52:c7:c1:6a:cf:ba:dd:41:e3:d2:
                    69:35:a4:a6:60:6c:31:1f:85:bd:56:6c:7b:09:63:
                    cd:a7:51:6b:84:40:90:77:7e:97:68:7b:38:b5:c4:
                    15:3b:74:37:34:28:ba:7a:e2:d7:84:53:78:76:4d:
                    16:b7:b8:df:09:72:e7:87:26:74:2c:04:ca:c5:ce:
                    29:f5:b4:ce:db:28:eb:45:47:42:8f:ed:88:5a:a3:
                    23:49:9b:7b:bc:39:e1:01:53
                Exponent: 65537 (0x10001)
        X509v3 extensions:
            X509v3 Basic Constraints: 
                CA:FALSE
            X509v3 Subject Key Identifier: 
                33:16:9D:3B:17:15:82:2B:34:6E:38:E8:CC:22:BF:49:A7:5E:2A:2B
            X509v3 Authority Key Identifier: 
                keyid:B8:92:DE:FD:8A:18:B3:30:C3:9F:55:F3:33:5D:B4:C8:29:8A:41:14

            Authority Information Access: 
                OCSP - URI:http://server.w1.fi:8888/

            X509v3 Extended Key Usage: 
                TLS Web Client Authentication
    Signature Algorithm: sha256WithRSAEncryption
         a0:1e:a7:a7:ce:f9:df:0d:6b:d8:eb:cd:f8:61:69:56:37:0c:
         15:91:07:a3:e8:ba:c4:9d:bf:10:1f:b2:21:48:59:b7:9e:80:
         30:80:56:eb:fa:e7:f6:07:89:ab:04:be:9c:b0:96:80:9d:12:
         90:23:20:b6:f3:3c:3f:08:1c:00:67:2d:9f:b1:bd:72:ce:ed:
         64:74:d5:cc:86:e5:26:a5:f1:3f:9f:8d:96:b5:a6:6e:94:10:
         84:cb:8c:45:c3:86:c7:79:48:89:6a:fc:1b:00:23:ac:84:ba:
         be:13:73:82:73:00:c1:fb:e1:8a:bc:7a:d6:d0:19:3f:43:11:
         82:26
-----BEGIN CERTIFICATE-----
MIICfTCCAeagAwIBAgIJANjT46bL48zjMA0GCSqGSIb3DQEBCwUAMC8xCzAJBgNV
BAYTAkZJMQ4wDAYDVQQKDAV3MS5maTEQMA4GA1UEAwwHUm9vdCBDQTAeFw0xNjAy
MTkxNjM3MDFaFw0xNzAyMTgxNjM3MDFaMDUxCzAJBgNVBAYTAkZJMQ4wDAYDVQQK
DAV3MS5maTEWMBQGA1UEAwwNc2VydmVyNS53MS5maTCBnzANBgkqhkiG9w0BAQEF
AAOBjQAwgYkCgYEAo5np4uEXYDtwNBp0XEbjuL27qsnz7vsSMKBpw3Q4gDq6I1LH
wWrPut1B49JpNaSmYGwxH4W9Vmx7CWPNp1FrhECQd36XaHs4tcQVO3Q3NCi6euLX
hFN4dk0Wt7jfCXLnhyZ0LATKxc4p9bTO2yjrRUdCj+2IWqMjSZt7vDnhAVMCAwEA
AaOBmjCBlzAJBgNVHRMEAjAAMB0GA1UdDgQWBBQzFp07FxWCKzRuOOjMIr9Jp14q
KzAfBgNVHSMEGDAWgBS4kt79ihizMMOfVfMzXbTIKYpBFDA1BggrBgEFBQcBAQQp
MCcwJQYIKwYBBQUHMAGGGWh0dHA6Ly9zZXJ2ZXIudzEuZmk6ODg4OC8wEwYDVR0l
BAwwCgYIKwYBBQUHAwIwDQYJKoZIhvcNAQELBQADgYEAoB6np8753w1r2OvN+GFp
VjcMFZEHo+i6xJ2/EB+yIUhZt56AMIBW6/rn9geJqwS+nLCWgJ0SkCMgtvM8Pwgc
AGctn7G9cs7tZHTVzIblJqXxP5+NlrWmbpQQhMuMRcOGx3lIiWr8GwAjrIS6vhNz
gnMAwfvhirx61tAZP0MRgiY=
-----END CERTIFICATE-----
