Certificate:
    Data:
        Version: 3 (0x2)
        Serial Number: 15624081837803162901 (0xd8d3e3a6cbe3cd15)
    Signature Algorithm: sha256WithRSAEncryption
        Issuer: C=FI, O=w1.fi, CN=Root CA
        Validity
            Not Before: Oct  1 15:42:04 2017 GMT
            Not After : Oct  1 15:42:04 2018 GMT
        Subject: C=FI, O=w1.fi, CN=server6.w1.fi
        Subject Public Key Info:
            Public Key Algorithm: rsaEncryption
                Public-Key: (1024 bit)
                Modulus:
                    00:ca:30:1e:fd:13:6a:02:28:51:9a:0e:a9:1e:72:
                    7e:e7:5a:c8:cb:0c:7e:8a:99:81:8d:05:b3:09:b0:
                    a9:86:e7:ae:44:fa:e0:c7:ee:f3:18:b4:31:65:e3:
                    05:6f:66:4e:e3:e4:85:81:9b:47:7f:5f:b5:16:2b:
                    b0:59:91:9c:c5:55:d3:d3:ca:2c:81:ce:f0:27:a8:
                    54:de:0e:4f:d8:f0:11:bd:0b:10:56:38:26:df:a9:
                    3a:95:15:93:a6:16:ed:d2:1e:b4:b5:c0:a8:61:8e:
                    ae:10:04:fd:e6:26:ca:4a:0d:90:4b:b9:ac:c9:94:
                    f2:b1:6b:97:6b:60:24:ea:bd
                Exponent: 65537 (0x10001)
        X509v3 extensions:
            X509v3 Basic Constraints: 
                CA:FALSE
            X509v3 Subject Key Identifier: 
                C7:C6:EF:F5:61:D2:A0:08:81:6A:6B:44:2C:F5:72:F7:DA:DE:5B:B9
            X509v3 Authority Key Identifier: 
                keyid:B8:92:DE:FD:8A:18:B3:30:C3:9F:55:F3:33:5D:B4:C8:29:8A:41:14

            Authority Information Access: 
                OCSP - URI:http://server.w1.fi:8888/

            X509v3 Extended Key Usage: 
                TLS Web Client Authentication, TLS Web Server Authentication
    Signature Algorithm: sha256WithRSAEncryption
         83:42:07:58:30:ac:24:5a:9f:cf:7e:87:a6:9b:b1:e7:27:e8:
         17:ff:43:bf:b9:82:0a:8c:97:59:a9:96:4e:fa:5c:dc:05:1f:
         8d:6c:89:a6:b1:df:e4:ab:09:89:c5:c1:bd:99:22:41:79:0f:
         88:ef:4c:48:51:a0:bd:0a:28:f3:91:d0:fe:c1:bb:3e:3b:5f:
         36:bb:3b:5f:1b:06:ce:3c:98:c9:3c:6a:9d:5c:4a:bf:75:45:
         94:df:45:d6:3b:1c:68:68:e2:ed:ca:0a:e9:f4:fa:15:e3:04:
         c1:e1:8a:8c:ca:b7:0a:96:74:83:c7:fd:38:22:5f:c7:b1:df:
         4c:1e
-----BEGIN CERTIFICATE-----
MIIChzCCAfCgAwIBAgIJANjT46bL480VMA0GCSqGSIb3DQEBCwUAMC8xCzAJBgNV
BAYTAkZJMQ4wDAYDVQQKDAV3MS5maTEQMA4GA1UEAwwHUm9vdCBDQTAeFw0xNzEw
MDExNTQyMDRaFw0xODEwMDExNTQyMDRaMDUxCzAJBgNVBAYTAkZJMQ4wDAYDVQQK
DAV3MS5maTEWMBQGA1UEAwwNc2VydmVyNi53MS5maTCBnzANBgkqhkiG9w0BAQEF
AAOBjQAwgYkCgYEAyjAe/RNqAihRmg6pHnJ+51rIywx+ipmBjQWzCbCphueuRPrg
x+7zGLQxZeMFb2ZO4+SFgZtHf1+1FiuwWZGcxVXT08osgc7wJ6hU3g5P2PARvQsQ
Vjgm36k6lRWTphbt0h60tcCoYY6uEAT95ibKSg2QS7msyZTysWuXa2Ak6r0CAwEA
AaOBpDCBoTAJBgNVHRMEAjAAMB0GA1UdDgQWBBTHxu/1YdKgCIFqa0Qs9XL32t5b
uTAfBgNVHSMEGDAWgBS4kt79ihizMMOfVfMzXbTIKYpBFDA1BggrBgEFBQcBAQQp
MCcwJQYIKwYBBQUHMAGGGWh0dHA6Ly9zZXJ2ZXIudzEuZmk6ODg4OC8wHQYDVR0l
BBYwFAYIKwYBBQUHAwIGCCsGAQUFBwMBMA0GCSqGSIb3DQEBCwUAA4GBAINCB1gw
rCRan89+h6absecn6Bf/Q7+5ggqMl1mplk76XNwFH41siaax3+SrCYnFwb2ZIkF5
D4jvTEhRoL0KKPOR0P7Buz47Xza7O18bBs48mMk8ap1cSr91RZTfRdY7HGho4u3K
Cun0+hXjBMHhiozKtwqWdIPH/TgiX8ex30we
-----END CERTIFICATE-----
