Certificate:
    Data:
        Version: 3 (0x2)
        Serial Number: 15624081837803162899 (0xd8d3e3a6cbe3cd13)
    Signature Algorithm: sha256WithRSAEncryption
        Issuer: C=FI, O=w1.fi, CN=Root CA
        Validity
            Not Before: Oct  1 15:42:04 2017 GMT
            Not After : Oct  1 15:42:04 2018 GMT
        Subject: C=FI, O=w1.fi, CN=server3.w1.fi
        Subject Public Key Info:
            Public Key Algorithm: rsaEncryption
                Public-Key: (1024 bit)
                Modulus:
                    00:db:fc:0f:a1:48:87:68:86:c4:9e:7a:f8:18:28:
                    77:6d:a3:58:0f:db:be:6b:d4:43:43:c4:ba:17:37:
                    9b:a8:ff:96:a2:73:14:13:1c:ae:19:0f:81:54:35:
                    10:64:94:e3:64:65:be:9b:0b:16:d2:9e:92:98:77:
                    87:e2:9a:99:fc:1d:57:0c:8a:0d:4c:21:2f:ae:67:
                    d7:63:61:eb:91:5b:58:2f:ad:67:66:65:e4:83:07:
                    ca:6a:36:a5:e6:20:f6:5c:99:27:db:63:e5:86:d8:
                    2b:7c:1d:90:44:81:22:21:77:0a:03:05:c3:eb:63:
                    61:b3:4c:32:c0:87:87:3a:47
                Exponent: 65537 (0x10001)
        X509v3 extensions:
            X509v3 Basic Constraints: 
                CA:FALSE
            X509v3 Subject Key Identifier: 
                8E:9A:4F:4D:46:AD:59:AC:7F:4C:9C:BE:6D:5B:D7:99:63:8D:C7:70
            X509v3 Authority Key Identifier: 
                keyid:B8:92:DE:FD:8A:18:B3:30:C3:9F:55:F3:33:5D:B4:C8:29:8A:41:14

            Authority Information Access: 
                OCSP - URI:http://server.w1.fi:8888/

            X509v3 Extended Key Usage: 
                TLS Web Server Authentication
    Signature Algorithm: sha256WithRSAEncryption
         1d:c5:10:12:04:f4:7e:56:e0:6d:74:26:bb:95:fc:df:32:af:
         46:75:65:7c:8d:54:e4:db:ee:c8:8b:2f:1f:65:b4:d3:57:5b:
         38:b1:70:32:36:bf:2f:79:21:14:9d:c7:c1:bc:ca:c4:29:b5:
         38:58:32:99:e8:01:c0:fa:f3:d5:ad:31:41:fb:c2:15:b6:93:
         f9:a9:3c:16:f5:6b:55:40:67:c2:d2:31:02:53:b5:de:6f:bd:
         30:ca:97:18:16:1c:12:0a:3b:84:a3:29:ef:b7:38:7d:fe:19:
         d1:15:e4:ec:57:09:c4:27:a5:77:4a:ed:a9:f1:17:83:a6:06:
         2c:9a
-----BEGIN CERTIFICATE-----
MIICfTCCAeagAwIBAgIJANjT46bL480TMA0GCSqGSIb3DQEBCwUAMC8xCzAJBgNV
BAYTAkZJMQ4wDAYDVQQKDAV3MS5maTEQMA4GA1UEAwwHUm9vdCBDQTAeFw0xNzEw
MDExNTQyMDRaFw0xODEwMDExNTQyMDRaMDUxCzAJBgNVBAYTAkZJMQ4wDAYDVQQK
DAV3MS5maTEWMBQGA1UEAwwNc2VydmVyMy53MS5maTCBnzANBgkqhkiG9w0BAQEF
AAOBjQAwgYkCgYEA2/wPoUiHaIbEnnr4GCh3baNYD9u+a9RDQ8S6FzebqP+WonMU
ExyuGQ+BVDUQZJTjZGW+mwsW0p6SmHeH4pqZ/B1XDIoNTCEvrmfXY2HrkVtYL61n
ZmXkgwfKajal5iD2XJkn22PlhtgrfB2QRIEiIXcKAwXD62Nhs0wywIeHOkcCAwEA
AaOBmjCBlzAJBgNVHRMEAjAAMB0GA1UdDgQWBBSOmk9NRq1ZrH9MnL5tW9eZY43H
cDAfBgNVHSMEGDAWgBS4kt79ihizMMOfVfMzXbTIKYpBFDA1BggrBgEFBQcBAQQp
MCcwJQYIKwYBBQUHMAGGGWh0dHA6Ly9zZXJ2ZXIudzEuZmk6ODg4OC8wEwYDVR0l
BAwwCgYIKwYBBQUHAwEwDQYJKoZIhvcNAQELBQADgYEAHcUQEgT0flbgbXQmu5X8
3zKvRnVlfI1U5NvuyIsvH2W001dbOLFwMja/L3khFJ3HwbzKxCm1OFgymegBwPrz
1a0xQfvCFbaT+ak8FvVrVUBnwtIxAlO13m+9MMqXGBYcEgo7hKMp77c4ff4Z0RXk
7FcJxCeld0rtqfEXg6YGLJo=
-----END CERTIFICATE-----
