Certificate:
    Data:
        Version: 3 (0x2)
        Serial Number: 15624081837803162838 (0xd8d3e3a6cbe3ccd6)
    Signature Algorithm: sha1WithRSAEncryption
        Issuer: C=FI, O=w1.fi, CN=Root CA
        Validity
            Not Before: Feb 19 12:16:15 2015 GMT
            Not After : Feb 19 12:16:15 2016 GMT
        Subject: C=FI, O=w1.fi, CN=server3.w1.fi
        Subject Public Key Info:
            Public Key Algorithm: rsaEncryption
                Public-Key: (1024 bit)
                Modulus:
                    00:db:fc:0f:a1:48:87:68:86:c4:9e:7a:f8:18:28:
                    77:6d:a3:58:0f:db:be:6b:d4:43:43:c4:ba:17:37:
                    9b:a8:ff:96:a2:73:14:13:1c:ae:19:0f:81:54:35:
                    10:64:94:e3:64:65:be:9b:0b:16:d2:9e:92:98:77:
                    87:e2:9a:99:fc:1d:57:0c:8a:0d:4c:21:2f:ae:67:
                    d7:63:61:eb:91:5b:58:2f:ad:67:66:65:e4:83:07:
                    ca:6a:36:a5:e6:20:f6:5c:99:27:db:63:e5:86:d8:
                    2b:7c:1d:90:44:81:22:21:77:0a:03:05:c3:eb:63:
                    61:b3:4c:32:c0:87:87:3a:47
                Exponent: 65537 (0x10001)
        X509v3 extensions:
            X509v3 Basic Constraints: 
                CA:FALSE
            X509v3 Subject Key Identifier: 
                8E:9A:4F:4D:46:AD:59:AC:7F:4C:9C:BE:6D:5B:D7:99:63:8D:C7:70
            X509v3 Authority Key Identifier: 
                keyid:B8:92:DE:FD:8A:18:B3:30:C3:9F:55:F3:33:5D:B4:C8:29:8A:41:14

            Authority Information Access: 
                OCSP - URI:http://server.w1.fi:8888/

            X509v3 Extended Key Usage: 
                TLS Web Server Authentication
    Signature Algorithm: sha1WithRSAEncryption
         91:6b:2b:90:41:55:93:9a:70:d9:56:57:21:56:08:6e:fb:04:
         e3:40:0d:eb:25:b5:56:21:7d:7b:81:12:97:22:e8:38:95:bc:
         ba:cb:db:97:a8:6f:dd:da:61:40:dd:fc:0d:82:e6:a0:b5:b0:
         13:d9:dc:ee:84:d7:27:f2:b3:be:01:31:11:5b:23:29:6d:37:
         8b:24:3c:d9:6c:21:7c:cc:d6:a2:68:32:39:40:00:5f:04:af:
         db:32:f7:10:af:e8:53:c4:d3:2f:03:61:cb:fa:67:c5:18:20:
         63:f9:d9:42:01:34:c9:eb:9d:33:c8:a3:7e:b5:fb:fe:6b:5f:
         f8:86
-----BEGIN CERTIFICATE-----
MIICfTCCAeagAwIBAgIJANjT46bL48zWMA0GCSqGSIb3DQEBBQUAMC8xCzAJBgNV
BAYTAkZJMQ4wDAYDVQQKDAV3MS5maTEQMA4GA1UEAwwHUm9vdCBDQTAeFw0xNTAy
MTkxMjE2MTVaFw0xNjAyMTkxMjE2MTVaMDUxCzAJBgNVBAYTAkZJMQ4wDAYDVQQK
DAV3MS5maTEWMBQGA1UEAwwNc2VydmVyMy53MS5maTCBnzANBgkqhkiG9w0BAQEF
AAOBjQAwgYkCgYEA2/wPoUiHaIbEnnr4GCh3baNYD9u+a9RDQ8S6FzebqP+WonMU
ExyuGQ+BVDUQZJTjZGW+mwsW0p6SmHeH4pqZ/B1XDIoNTCEvrmfXY2HrkVtYL61n
ZmXkgwfKajal5iD2XJkn22PlhtgrfB2QRIEiIXcKAwXD62Nhs0wywIeHOkcCAwEA
AaOBmjCBlzAJBgNVHRMEAjAAMB0GA1UdDgQWBBSOmk9NRq1ZrH9MnL5tW9eZY43H
cDAfBgNVHSMEGDAWgBS4kt79ihizMMOfVfMzXbTIKYpBFDA1BggrBgEFBQcBAQQp
MCcwJQYIKwYBBQUHMAGGGWh0dHA6Ly9zZXJ2ZXIudzEuZmk6ODg4OC8wEwYDVR0l
BAwwCgYIKwYBBQUHAwEwDQYJKoZIhvcNAQEFBQADgYEAkWsrkEFVk5pw2VZXIVYI
bvsE40AN6yW1ViF9e4ESlyLoOJW8usvbl6hv3dphQN38DYLmoLWwE9nc7oTXJ/Kz
vgExEVsjKW03iyQ82WwhfMzWomgyOUAAXwSv2zL3EK/oU8TTLwNhy/pnxRggY/nZ
QgE0yeudM8ijfrX7/mtf+IY=
-----END CERTIFICATE-----
