Certificate:
    Data:
        Version: 3 (0x2)
        Serial Number: 15624081837803162860 (0xd8d3e3a6cbe3ccec)
    Signature Algorithm: sha256WithRSAEncryption
        Issuer: C=FI, O=w1.fi, CN=Root CA
        Validity
            Not Before: Feb 18 19:35:21 2017 GMT
            Not After : Feb 18 19:35:21 2018 GMT
        Subject: C=FI, O=w1.fi, CN=server3.w1.fi
        Subject Public Key Info:
            Public Key Algorithm: rsaEncryption
                Public-Key: (1024 bit)
                Modulus:
                    00:db:fc:0f:a1:48:87:68:86:c4:9e:7a:f8:18:28:
                    77:6d:a3:58:0f:db:be:6b:d4:43:43:c4:ba:17:37:
                    9b:a8:ff:96:a2:73:14:13:1c:ae:19:0f:81:54:35:
                    10:64:94:e3:64:65:be:9b:0b:16:d2:9e:92:98:77:
                    87:e2:9a:99:fc:1d:57:0c:8a:0d:4c:21:2f:ae:67:
                    d7:63:61:eb:91:5b:58:2f:ad:67:66:65:e4:83:07:
                    ca:6a:36:a5:e6:20:f6:5c:99:27:db:63:e5:86:d8:
                    2b:7c:1d:90:44:81:22:21:77:0a:03:05:c3:eb:63:
                    61:b3:4c:32:c0:87:87:3a:47
                Exponent: 65537 (0x10001)
        X509v3 extensions:
            X509v3 Basic Constraints: 
                CA:FALSE
            X509v3 Subject Key Identifier: 
                8E:9A:4F:4D:46:AD:59:AC:7F:4C:9C:BE:6D:5B:D7:99:63:8D:C7:70
            X509v3 Authority Key Identifier: 
                keyid:B8:92:DE:FD:8A:18:B3:30:C3:9F:55:F3:33:5D:B4:C8:29:8A:41:14

            Authority Information Access: 
                OCSP - URI:http://server.w1.fi:8888/

            X509v3 Extended Key Usage: 
                TLS Web Server Authentication
    Signature Algorithm: sha256WithRSAEncryption
         62:93:83:da:f7:ca:dc:c1:0b:f0:40:e8:59:21:e4:ed:16:fa:
         c5:fe:4d:8e:29:c0:f7:b7:0c:c5:da:32:6f:dc:0e:95:06:20:
         48:1c:d0:38:f4:91:1c:c0:91:6e:08:8b:eb:04:ab:7e:21:47:
         be:15:cf:3b:48:d6:3b:9b:69:bc:c1:8e:23:96:09:b5:1d:b5:
         58:8d:37:de:12:82:44:c5:f9:ec:c3:c1:9e:12:0c:ae:11:80:
         d9:2b:67:ab:cc:a6:f3:dc:3e:bf:f6:40:32:e3:ca:93:38:6a:
         8a:ef:90:b8:10:0b:6e:c8:9e:57:1f:60:50:e3:f6:c5:7c:6f:
         3c:52
-----BEGIN CERTIFICATE-----
MIICfTCCAeagAwIBAgIJANjT46bL48zsMA0GCSqGSIb3DQEBCwUAMC8xCzAJBgNV
BAYTAkZJMQ4wDAYDVQQKDAV3MS5maTEQMA4GA1UEAwwHUm9vdCBDQTAeFw0xNzAy
MTgxOTM1MjFaFw0xODAyMTgxOTM1MjFaMDUxCzAJBgNVBAYTAkZJMQ4wDAYDVQQK
DAV3MS5maTEWMBQGA1UEAwwNc2VydmVyMy53MS5maTCBnzANBgkqhkiG9w0BAQEF
AAOBjQAwgYkCgYEA2/wPoUiHaIbEnnr4GCh3baNYD9u+a9RDQ8S6FzebqP+WonMU
ExyuGQ+BVDUQZJTjZGW+mwsW0p6SmHeH4pqZ/B1XDIoNTCEvrmfXY2HrkVtYL61n
ZmXkgwfKajal5iD2XJkn22PlhtgrfB2QRIEiIXcKAwXD62Nhs0wywIeHOkcCAwEA
AaOBmjCBlzAJBgNVHRMEAjAAMB0GA1UdDgQWBBSOmk9NRq1ZrH9MnL5tW9eZY43H
cDAfBgNVHSMEGDAWgBS4kt79ihizMMOfVfMzXbTIKYpBFDA1BggrBgEFBQcBAQQp
MCcwJQYIKwYBBQUHMAGGGWh0dHA6Ly9zZXJ2ZXIudzEuZmk6ODg4OC8wEwYDVR0l
BAwwCgYIKwYBBQUHAwEwDQYJKoZIhvcNAQELBQADgYEAYpOD2vfK3MEL8EDoWSHk
7Rb6xf5NjinA97cMxdoyb9wOlQYgSBzQOPSRHMCRbgiL6wSrfiFHvhXPO0jWO5tp
vMGOI5YJtR21WI033hKCRMX57MPBnhIMrhGA2Stnq8ym89w+v/ZAMuPKkzhqiu+Q
uBALbsieVx9gUOP2xXxvPFI=
-----END CERTIFICATE-----
