Certificate:
    Data:
        Version: 3 (0x2)
        Serial Number: 15624081837803162853 (0xd8d3e3a6cbe3cce5)
    Signature Algorithm: sha256WithRSAEncryption
        Issuer: C=FI, O=w1.fi, CN=Root CA
        Validity
            Not Before: Feb 19 16:40:33 2016 GMT
            Not After : Feb 18 16:40:33 2017 GMT
        Subject: C=FI, O=w1.fi, CN=server3.w1.fi
        Subject Public Key Info:
            Public Key Algorithm: rsaEncryption
                Public-Key: (1024 bit)
                Modulus:
                    00:db:fc:0f:a1:48:87:68:86:c4:9e:7a:f8:18:28:
                    77:6d:a3:58:0f:db:be:6b:d4:43:43:c4:ba:17:37:
                    9b:a8:ff:96:a2:73:14:13:1c:ae:19:0f:81:54:35:
                    10:64:94:e3:64:65:be:9b:0b:16:d2:9e:92:98:77:
                    87:e2:9a:99:fc:1d:57:0c:8a:0d:4c:21:2f:ae:67:
                    d7:63:61:eb:91:5b:58:2f:ad:67:66:65:e4:83:07:
                    ca:6a:36:a5:e6:20:f6:5c:99:27:db:63:e5:86:d8:
                    2b:7c:1d:90:44:81:22:21:77:0a:03:05:c3:eb:63:
                    61:b3:4c:32:c0:87:87:3a:47
                Exponent: 65537 (0x10001)
        X509v3 extensions:
            X509v3 Basic Constraints: 
                CA:FALSE
            X509v3 Subject Key Identifier: 
                8E:9A:4F:4D:46:AD:59:AC:7F:4C:9C:BE:6D:5B:D7:99:63:8D:C7:70
            X509v3 Authority Key Identifier: 
                keyid:B8:92:DE:FD:8A:18:B3:30:C3:9F:55:F3:33:5D:B4:C8:29:8A:41:14

            Authority Information Access: 
                OCSP - URI:http://server.w1.fi:8888/

            X509v3 Extended Key Usage: 
                TLS Web Server Authentication
    Signature Algorithm: sha256WithRSAEncryption
         8d:b6:aa:0a:f5:7f:1c:6b:0b:6b:34:87:35:c4:76:0e:fd:38:
         a9:80:5c:79:36:fd:f5:71:10:90:ba:db:07:a1:65:f8:8a:04:
         6d:17:94:53:51:cb:e9:76:c2:d3:c3:60:d9:64:fd:f1:b7:b2:
         69:4f:aa:18:ef:98:41:58:3d:8d:b5:b5:1b:b0:a1:af:e9:f5:
         e7:20:8f:44:22:85:00:72:a7:24:78:fd:9a:84:fe:93:87:df:
         f9:3d:26:76:7b:27:4b:c9:a6:5f:20:10:46:4b:3e:02:b2:39:
         b0:2f:ef:a9:4b:0c:a5:a0:2f:63:fc:b9:18:44:8f:ff:a2:2b:
         27:7d
-----BEGIN CERTIFICATE-----
MIICfTCCAeagAwIBAgIJANjT46bL48zlMA0GCSqGSIb3DQEBCwUAMC8xCzAJBgNV
BAYTAkZJMQ4wDAYDVQQKDAV3MS5maTEQMA4GA1UEAwwHUm9vdCBDQTAeFw0xNjAy
MTkxNjQwMzNaFw0xNzAyMTgxNjQwMzNaMDUxCzAJBgNVBAYTAkZJMQ4wDAYDVQQK
DAV3MS5maTEWMBQGA1UEAwwNc2VydmVyMy53MS5maTCBnzANBgkqhkiG9w0BAQEF
AAOBjQAwgYkCgYEA2/wPoUiHaIbEnnr4GCh3baNYD9u+a9RDQ8S6FzebqP+WonMU
ExyuGQ+BVDUQZJTjZGW+mwsW0p6SmHeH4pqZ/B1XDIoNTCEvrmfXY2HrkVtYL61n
ZmXkgwfKajal5iD2XJkn22PlhtgrfB2QRIEiIXcKAwXD62Nhs0wywIeHOkcCAwEA
AaOBmjCBlzAJBgNVHRMEAjAAMB0GA1UdDgQWBBSOmk9NRq1ZrH9MnL5tW9eZY43H
cDAfBgNVHSMEGDAWgBS4kt79ihizMMOfVfMzXbTIKYpBFDA1BggrBgEFBQcBAQQp
MCcwJQYIKwYBBQUHMAGGGWh0dHA6Ly9zZXJ2ZXIudzEuZmk6ODg4OC8wEwYDVR0l
BAwwCgYIKwYBBQUHAwEwDQYJKoZIhvcNAQELBQADgYEAjbaqCvV/HGsLazSHNcR2
Dv04qYBceTb99XEQkLrbB6Fl+IoEbReUU1HL6XbC08Ng2WT98beyaU+qGO+YQVg9
jbW1G7Chr+n15yCPRCKFAHKnJHj9moT+k4ff+T0mdnsnS8mmXyAQRks+ArI5sC/v
qUsMpaAvY/y5GESP/6IrJ30=
-----END CERTIFICATE-----
