Certificate:
    Data:
        Version: 3 (0x2)
        Serial Number: 15624081837803162840 (0xd8d3e3a6cbe3ccd8)
    Signature Algorithm: sha1WithRSAEncryption
        Issuer: C=FI, O=w1.fi, CN=Root CA
        Validity
            Not Before: Feb 19 12:18:03 2015 GMT
            Not After : Feb 19 12:18:03 2016 GMT
        Subject: C=FI, O=w1.fi, CN=server5.w1.fi
        Subject Public Key Info:
            Public Key Algorithm: rsaEncryption
                Public-Key: (1024 bit)
                Modulus:
                    00:a3:99:e9:e2:e1:17:60:3b:70:34:1a:74:5c:46:
                    e3:b8:bd:bb:aa:c9:f3:ee:fb:12:30:a0:69:c3:74:
                    38:80:3a:ba:23:52:c7:c1:6a:cf:ba:dd:41:e3:d2:
                    69:35:a4:a6:60:6c:31:1f:85:bd:56:6c:7b:09:63:
                    cd:a7:51:6b:84:40:90:77:7e:97:68:7b:38:b5:c4:
                    15:3b:74:37:34:28:ba:7a:e2:d7:84:53:78:76:4d:
                    16:b7:b8:df:09:72:e7:87:26:74:2c:04:ca:c5:ce:
                    29:f5:b4:ce:db:28:eb:45:47:42:8f:ed:88:5a:a3:
                    23:49:9b:7b:bc:39:e1:01:53
                Exponent: 65537 (0x10001)
        X509v3 extensions:
            X509v3 Basic Constraints: 
                CA:FALSE
            X509v3 Subject Key Identifier: 
                33:16:9D:3B:17:15:82:2B:34:6E:38:E8:CC:22:BF:49:A7:5E:2A:2B
            X509v3 Authority Key Identifier: 
                keyid:B8:92:DE:FD:8A:18:B3:30:C3:9F:55:F3:33:5D:B4:C8:29:8A:41:14

            Authority Information Access: 
                OCSP - URI:http://server.w1.fi:8888/

            X509v3 Extended Key Usage: 
                TLS Web Client Authentication
    Signature Algorithm: sha1WithRSAEncryption
         49:88:dd:04:23:86:22:49:cb:73:57:9a:f7:d8:71:cf:33:62:
         cc:24:a8:e9:ae:cd:22:91:16:2f:17:86:fc:09:8f:79:c0:93:
         22:e6:77:25:21:8c:45:38:a3:4d:07:6e:d0:c3:ca:49:8a:3e:
         86:1f:4e:dd:72:93:f3:47:7d:c3:5b:95:f1:98:50:a5:4e:36:
         ed:71:94:3a:55:ee:ae:21:e3:27:3d:90:df:4a:be:f5:93:a5:
         e2:0b:1a:3d:7d:c7:02:98:c1:17:67:9e:9b:a2:1d:65:fc:81:
         59:72:2b:89:a9:47:31:ad:30:c0:82:39:47:a2:d2:eb:0e:71:
         d6:3c
-----BEGIN CERTIFICATE-----
MIICfTCCAeagAwIBAgIJANjT46bL48zYMA0GCSqGSIb3DQEBBQUAMC8xCzAJBgNV
BAYTAkZJMQ4wDAYDVQQKDAV3MS5maTEQMA4GA1UEAwwHUm9vdCBDQTAeFw0xNTAy
MTkxMjE4MDNaFw0xNjAyMTkxMjE4MDNaMDUxCzAJBgNVBAYTAkZJMQ4wDAYDVQQK
DAV3MS5maTEWMBQGA1UEAwwNc2VydmVyNS53MS5maTCBnzANBgkqhkiG9w0BAQEF
AAOBjQAwgYkCgYEAo5np4uEXYDtwNBp0XEbjuL27qsnz7vsSMKBpw3Q4gDq6I1LH
wWrPut1B49JpNaSmYGwxH4W9Vmx7CWPNp1FrhECQd36XaHs4tcQVO3Q3NCi6euLX
hFN4dk0Wt7jfCXLnhyZ0LATKxc4p9bTO2yjrRUdCj+2IWqMjSZt7vDnhAVMCAwEA
AaOBmjCBlzAJBgNVHRMEAjAAMB0GA1UdDgQWBBQzFp07FxWCKzRuOOjMIr9Jp14q
KzAfBgNVHSMEGDAWgBS4kt79ihizMMOfVfMzXbTIKYpBFDA1BggrBgEFBQcBAQQp
MCcwJQYIKwYBBQUHMAGGGWh0dHA6Ly9zZXJ2ZXIudzEuZmk6ODg4OC8wEwYDVR0l
BAwwCgYIKwYBBQUHAwIwDQYJKoZIhvcNAQEFBQADgYEASYjdBCOGIknLc1ea99hx
zzNizCSo6a7NIpEWLxeG/AmPecCTIuZ3JSGMRTijTQdu0MPKSYo+hh9O3XKT80d9
w1uV8ZhQpU427XGUOlXuriHjJz2Q30q+9ZOl4gsaPX3HApjBF2eem6IdZfyBWXIr
ialHMa0wwII5R6LS6w5x1jw=
-----END CERTIFICATE-----
