Certificate:
    Data:
        Version: 3 (0x2)
        Serial Number: 15624081837803162862 (0xd8d3e3a6cbe3ccee)
    Signature Algorithm: sha256WithRSAEncryption
        Issuer: C=FI, O=w1.fi, CN=Root CA
        Validity
            Not Before: Feb 18 19:37:20 2017 GMT
            Not After : Feb 18 19:37:20 2018 GMT
        Subject: C=FI, O=w1.fi, CN=server6.w1.fi
        Subject Public Key Info:
            Public Key Algorithm: rsaEncryption
                Public-Key: (1024 bit)
                Modulus:
                    00:ca:30:1e:fd:13:6a:02:28:51:9a:0e:a9:1e:72:
                    7e:e7:5a:c8:cb:0c:7e:8a:99:81:8d:05:b3:09:b0:
                    a9:86:e7:ae:44:fa:e0:c7:ee:f3:18:b4:31:65:e3:
                    05:6f:66:4e:e3:e4:85:81:9b:47:7f:5f:b5:16:2b:
                    b0:59:91:9c:c5:55:d3:d3:ca:2c:81:ce:f0:27:a8:
                    54:de:0e:4f:d8:f0:11:bd:0b:10:56:38:26:df:a9:
                    3a:95:15:93:a6:16:ed:d2:1e:b4:b5:c0:a8:61:8e:
                    ae:10:04:fd:e6:26:ca:4a:0d:90:4b:b9:ac:c9:94:
                    f2:b1:6b:97:6b:60:24:ea:bd
                Exponent: 65537 (0x10001)
        X509v3 extensions:
            X509v3 Basic Constraints: 
                CA:FALSE
            X509v3 Subject Key Identifier: 
                C7:C6:EF:F5:61:D2:A0:08:81:6A:6B:44:2C:F5:72:F7:DA:DE:5B:B9
            X509v3 Authority Key Identifier: 
                keyid:B8:92:DE:FD:8A:18:B3:30:C3:9F:55:F3:33:5D:B4:C8:29:8A:41:14

            Authority Information Access: 
                OCSP - URI:http://server.w1.fi:8888/

            X509v3 Extended Key Usage: 
                TLS Web Client Authentication, TLS Web Server Authentication
    Signature Algorithm: sha256WithRSAEncryption
         23:d4:9e:22:e4:d2:74:de:e6:39:ce:f9:67:e4:55:2d:75:51:
         29:14:de:f4:b6:67:4b:df:c1:10:20:87:3b:ed:39:58:7c:a8:
         73:b3:8e:6e:59:54:88:ca:88:b9:9d:e5:e9:4d:fd:cd:ad:84:
         8d:30:d6:a8:8d:0d:b7:23:73:bc:83:36:bd:ff:9a:6a:b4:29:
         30:47:a6:7e:85:1c:76:f2:a9:34:c2:f8:a4:82:f8:7f:f7:d1:
         e1:62:b0:6f:b1:0d:67:d3:34:0c:a1:97:23:13:cf:78:67:64:
         f1:8c:30:b2:6a:08:61:59:79:7b:4e:9e:57:10:83:4d:d5:bc:
         4d:15
-----BEGIN CERTIFICATE-----
MIIChzCCAfCgAwIBAgIJANjT46bL48zuMA0GCSqGSIb3DQEBCwUAMC8xCzAJBgNV
BAYTAkZJMQ4wDAYDVQQKDAV3MS5maTEQMA4GA1UEAwwHUm9vdCBDQTAeFw0xNzAy
MTgxOTM3MjBaFw0xODAyMTgxOTM3MjBaMDUxCzAJBgNVBAYTAkZJMQ4wDAYDVQQK
DAV3MS5maTEWMBQGA1UEAwwNc2VydmVyNi53MS5maTCBnzANBgkqhkiG9w0BAQEF
AAOBjQAwgYkCgYEAyjAe/RNqAihRmg6pHnJ+51rIywx+ipmBjQWzCbCphueuRPrg
x+7zGLQxZeMFb2ZO4+SFgZtHf1+1FiuwWZGcxVXT08osgc7wJ6hU3g5P2PARvQsQ
Vjgm36k6lRWTphbt0h60tcCoYY6uEAT95ibKSg2QS7msyZTysWuXa2Ak6r0CAwEA
AaOBpDCBoTAJBgNVHRMEAjAAMB0GA1UdDgQWBBTHxu/1YdKgCIFqa0Qs9XL32t5b
uTAfBgNVHSMEGDAWgBS4kt79ihizMMOfVfMzXbTIKYpBFDA1BggrBgEFBQcBAQQp
MCcwJQYIKwYBBQUHMAGGGWh0dHA6Ly9zZXJ2ZXIudzEuZmk6ODg4OC8wHQYDVR0l
BBYwFAYIKwYBBQUHAwIGCCsGAQUFBwMBMA0GCSqGSIb3DQEBCwUAA4GBACPUniLk
0nTe5jnO+WfkVS11USkU3vS2Z0vfwRAghzvtOVh8qHOzjm5ZVIjKiLmd5elN/c2t
hI0w1qiNDbcjc7yDNr3/mmq0KTBHpn6FHHbyqTTC+KSC+H/30eFisG+xDWfTNAyh
lyMTz3hnZPGMMLJqCGFZeXtOnlcQg03VvE0V
-----END CERTIFICATE-----
