Certificate:
    Data:
        Version: 3 (0x2)
        Serial Number: 15624081837803162823 (0xd8d3e3a6cbe3ccc7)
    Signature Algorithm: sha1WithRSAEncryption
        Issuer: C=FI, O=w1.fi, CN=Root CA
        Validity
            Not Before: Sep 29 16:02:03 2013 GMT
            Not After : Sep 29 16:02:03 2014 GMT
        Subject: C=FI, O=w1.fi, CN=server.w1.fi
        Subject Public Key Info:
            Public Key Algorithm: rsaEncryption
                Public-Key: (1024 bit)
                Modulus:
                    00:ba:a0:77:55:22:14:85:55:65:9b:64:2c:ad:ed:
                    9b:dd:65:31:c9:da:60:50:ce:38:d6:34:dc:e8:bc:
                    1b:9e:30:e7:12:e3:53:6c:c9:ed:48:03:79:81:69:
                    98:ce:8a:b8:77:47:36:45:cf:c6:e0:f1:7b:1e:71:
                    89:54:f7:01:cc:22:ad:a0:42:b1:a8:35:9e:60:aa:
                    3a:98:51:d0:ff:1f:ee:be:8d:0a:63:fb:a2:39:17:
                    f2:64:61:f6:65:02:32:79:74:e1:9f:d1:89:65:55:
                    a9:c3:20:9e:bf:69:56:b3:f7:4f:3f:a9:54:c2:da:
                    8f:3c:af:f2:75:54:fa:7e:81
                Exponent: 65537 (0x10001)
        X509v3 extensions:
            X509v3 Basic Constraints: 
                CA:FALSE
            X509v3 Subject Key Identifier: 
                31:4F:10:5C:67:9F:BE:4E:88:D6:DC:C5:AB:9E:12:88:86:69:02:4F
            X509v3 Authority Key Identifier: 
                keyid:B8:92:DE:FD:8A:18:B3:30:C3:9F:55:F3:33:5D:B4:C8:29:8A:41:14

            Authority Information Access: 
                OCSP - URI:http://server.w1.fi:8888/

            X509v3 Subject Alternative Name: 
                DNS:server.w1.fi
            X509v3 Extended Key Usage: 
                TLS Web Server Authentication
    Signature Algorithm: sha1WithRSAEncryption
         a9:b3:cc:e7:b7:5e:fa:88:46:c9:21:97:47:f5:18:9e:1d:5c:
         8f:d9:78:51:7f:d8:e8:9d:e4:b1:d0:74:68:67:d3:dc:84:56:
         21:7e:a3:ca:ba:97:e9:74:0a:b1:8f:e3:6a:7c:cc:f8:8c:cf:
         73:34:27:3f:f5:ac:e6:c4:13:86:b7:86:fb:d0:19:49:ff:55:
         28:8e:dc:56:a5:17:fa:8f:43:ef:72:d3:21:00:a2:92:74:b8:
         b3:b8:38:4a:2a:01:98:5a:c7:a4:02:f2:43:af:e5:d9:52:3a:
         fd:e1:24:ac:33:f4:99:e5:c0:1d:aa:29:b6:c4:a0:e9:6a:a6:
         99:0a
-----BEGIN CERTIFICATE-----
MIIClTCCAf6gAwIBAgIJANjT46bL48zHMA0GCSqGSIb3DQEBBQUAMC8xCzAJBgNV
BAYTAkZJMQ4wDAYDVQQKDAV3MS5maTEQMA4GA1UEAwwHUm9vdCBDQTAeFw0xMzA5
MjkxNjAyMDNaFw0xNDA5MjkxNjAyMDNaMDQxCzAJBgNVBAYTAkZJMQ4wDAYDVQQK
DAV3MS5maTEVMBMGA1UEAwwMc2VydmVyLncxLmZpMIGfMA0GCSqGSIb3DQEBAQUA
A4GNADCBiQKBgQC6oHdVIhSFVWWbZCyt7ZvdZTHJ2mBQzjjWNNzovBueMOcS41Ns
ye1IA3mBaZjOirh3RzZFz8bg8XsecYlU9wHMIq2gQrGoNZ5gqjqYUdD/H+6+jQpj
+6I5F/JkYfZlAjJ5dOGf0YllVanDIJ6/aVaz908/qVTC2o88r/J1VPp+gQIDAQAB
o4GzMIGwMAkGA1UdEwQCMAAwHQYDVR0OBBYEFDFPEFxnn75OiNbcxaueEoiGaQJP
MB8GA1UdIwQYMBaAFLiS3v2KGLMww59V8zNdtMgpikEUMDUGCCsGAQUFBwEBBCkw
JzAlBggrBgEFBQcwAYYZaHR0cDovL3NlcnZlci53MS5maTo4ODg4LzAXBgNVHREE
EDAOggxzZXJ2ZXIudzEuZmkwEwYDVR0lBAwwCgYIKwYBBQUHAwEwDQYJKoZIhvcN
AQEFBQADgYEAqbPM57de+ohGySGXR/UYnh1cj9l4UX/Y6J3ksdB0aGfT3IRWIX6j
yrqX6XQKsY/janzM+IzPczQnP/Ws5sQThreG+9AZSf9VKI7cVqUX+o9D73LTIQCi
knS4s7g4SioBmFrHpALyQ6/l2VI6/eEkrDP0meXAHaoptsSg6WqmmQo=
-----END CERTIFICATE-----
