Certificate:
    Data:
        Version: 3 (0x2)
        Serial Number: 15624081837803162850 (0xd8d3e3a6cbe3cce2)
    Signature Algorithm: sha256WithRSAEncryption
        Issuer: C=FI, O=w1.fi, CN=Root CA
        Validity
            Not Before: Sep 30 21:28:46 2015 GMT
            Not After : Sep 29 21:28:46 2016 GMT
        Subject: C=FI, O=w1.fi, CN=server.w1.fi
        Subject Public Key Info:
            Public Key Algorithm: rsaEncryption
                Public-Key: (1024 bit)
                Modulus:
                    00:ba:a0:77:55:22:14:85:55:65:9b:64:2c:ad:ed:
                    9b:dd:65:31:c9:da:60:50:ce:38:d6:34:dc:e8:bc:
                    1b:9e:30:e7:12:e3:53:6c:c9:ed:48:03:79:81:69:
                    98:ce:8a:b8:77:47:36:45:cf:c6:e0:f1:7b:1e:71:
                    89:54:f7:01:cc:22:ad:a0:42:b1:a8:35:9e:60:aa:
                    3a:98:51:d0:ff:1f:ee:be:8d:0a:63:fb:a2:39:17:
                    f2:64:61:f6:65:02:32:79:74:e1:9f:d1:89:65:55:
                    a9:c3:20:9e:bf:69:56:b3:f7:4f:3f:a9:54:c2:da:
                    8f:3c:af:f2:75:54:fa:7e:81
                Exponent: 65537 (0x10001)
        X509v3 extensions:
            X509v3 Basic Constraints: 
                CA:FALSE
            X509v3 Subject Key Identifier: 
                31:4F:10:5C:67:9F:BE:4E:88:D6:DC:C5:AB:9E:12:88:86:69:02:4F
            X509v3 Authority Key Identifier: 
                keyid:B8:92:DE:FD:8A:18:B3:30:C3:9F:55:F3:33:5D:B4:C8:29:8A:41:14

            Authority Information Access: 
                OCSP - URI:http://server.w1.fi:8888/

            X509v3 Subject Alternative Name: 
                DNS:server.w1.fi
            X509v3 Extended Key Usage: 
                TLS Web Server Authentication
    Signature Algorithm: sha256WithRSAEncryption
         48:4d:b8:be:72:ad:1c:4c:e8:9c:d9:0c:2c:77:ac:b2:60:20:
         96:15:51:9d:0e:41:8c:79:8d:43:e8:01:af:9f:4b:c8:26:89:
         f9:17:38:90:d0:b9:d1:14:13:57:ba:ce:ce:3b:55:b0:90:20:
         f8:1e:d2:f0:32:98:6b:fc:55:f4:36:c1:55:9b:1b:55:26:26:
         dd:5f:0f:38:73:76:64:7d:61:36:ad:c8:86:e6:2f:3f:12:fe:
         d2:4c:cd:6e:57:4f:ab:3a:22:a1:0b:c9:5b:46:4e:43:71:dd:
         1c:b3:38:af:5c:69:a1:6b:90:59:c0:1e:f8:3e:9d:f4:23:b8:
         d4:a9
-----BEGIN CERTIFICATE-----
MIIClTCCAf6gAwIBAgIJANjT46bL48ziMA0GCSqGSIb3DQEBCwUAMC8xCzAJBgNV
BAYTAkZJMQ4wDAYDVQQKDAV3MS5maTEQMA4GA1UEAwwHUm9vdCBDQTAeFw0xNTA5
MzAyMTI4NDZaFw0xNjA5MjkyMTI4NDZaMDQxCzAJBgNVBAYTAkZJMQ4wDAYDVQQK
DAV3MS5maTEVMBMGA1UEAwwMc2VydmVyLncxLmZpMIGfMA0GCSqGSIb3DQEBAQUA
A4GNADCBiQKBgQC6oHdVIhSFVWWbZCyt7ZvdZTHJ2mBQzjjWNNzovBueMOcS41Ns
ye1IA3mBaZjOirh3RzZFz8bg8XsecYlU9wHMIq2gQrGoNZ5gqjqYUdD/H+6+jQpj
+6I5F/JkYfZlAjJ5dOGf0YllVanDIJ6/aVaz908/qVTC2o88r/J1VPp+gQIDAQAB
o4GzMIGwMAkGA1UdEwQCMAAwHQYDVR0OBBYEFDFPEFxnn75OiNbcxaueEoiGaQJP
MB8GA1UdIwQYMBaAFLiS3v2KGLMww59V8zNdtMgpikEUMDUGCCsGAQUFBwEBBCkw
JzAlBggrBgEFBQcwAYYZaHR0cDovL3NlcnZlci53MS5maTo4ODg4LzAXBgNVHREE
EDAOggxzZXJ2ZXIudzEuZmkwEwYDVR0lBAwwCgYIKwYBBQUHAwEwDQYJKoZIhvcN
AQELBQADgYEASE24vnKtHEzonNkMLHessmAglhVRnQ5BjHmNQ+gBr59LyCaJ+Rc4
kNC50RQTV7rOzjtVsJAg+B7S8DKYa/xV9DbBVZsbVSYm3V8POHN2ZH1hNq3IhuYv
PxL+0kzNbldPqzoioQvJW0ZOQ3HdHLM4r1xpoWuQWcAe+D6d9CO41Kk=
-----END CERTIFICATE-----
