Certificate:
    Data:
        Version: 3 (0x2)
        Serial Number: 15624081837803162861 (0xd8d3e3a6cbe3cced)
    Signature Algorithm: sha256WithRSAEncryption
        Issuer: C=FI, O=w1.fi, CN=Root CA
        Validity
            Not Before: Feb 18 19:36:36 2017 GMT
            Not After : Feb 18 19:36:36 2018 GMT
        Subject: C=FI, O=w1.fi, CN=server5.w1.fi
        Subject Public Key Info:
            Public Key Algorithm: rsaEncryption
                Public-Key: (1024 bit)
                Modulus:
                    00:a3:99:e9:e2:e1:17:60:3b:70:34:1a:74:5c:46:
                    e3:b8:bd:bb:aa:c9:f3:ee:fb:12:30:a0:69:c3:74:
                    38:80:3a:ba:23:52:c7:c1:6a:cf:ba:dd:41:e3:d2:
                    69:35:a4:a6:60:6c:31:1f:85:bd:56:6c:7b:09:63:
                    cd:a7:51:6b:84:40:90:77:7e:97:68:7b:38:b5:c4:
                    15:3b:74:37:34:28:ba:7a:e2:d7:84:53:78:76:4d:
                    16:b7:b8:df:09:72:e7:87:26:74:2c:04:ca:c5:ce:
                    29:f5:b4:ce:db:28:eb:45:47:42:8f:ed:88:5a:a3:
                    23:49:9b:7b:bc:39:e1:01:53
                Exponent: 65537 (0x10001)
        X509v3 extensions:
            X509v3 Basic Constraints: 
                CA:FALSE
            X509v3 Subject Key Identifier: 
                33:16:9D:3B:17:15:82:2B:34:6E:38:E8:CC:22:BF:49:A7:5E:2A:2B
            X509v3 Authority Key Identifier: 
                keyid:B8:92:DE:FD:8A:18:B3:30:C3:9F:55:F3:33:5D:B4:C8:29:8A:41:14

            Authority Information Access: 
                OCSP - URI:http://server.w1.fi:8888/

            X509v3 Extended Key Usage: 
                TLS Web Client Authentication
    Signature Algorithm: sha256WithRSAEncryption
         8a:68:22:48:71:eb:9f:c2:30:17:9d:27:3c:18:2b:8d:0d:70:
         a1:80:b7:64:ff:3a:b9:6c:64:51:d8:57:a8:49:aa:e6:fa:1f:
         e7:41:a1:2d:27:95:ba:83:6c:8b:9a:78:4c:b1:51:96:ba:a1:
         5e:63:23:bf:aa:57:26:28:33:54:01:38:a3:44:dd:96:bd:5b:
         92:e9:36:67:1a:66:11:4f:0a:0b:52:6d:bf:20:a0:79:78:61:
         8d:d9:6b:38:a0:a4:c7:a0:99:66:cd:57:e4:99:cd:e7:f3:00:
         e8:29:74:99:d1:83:a7:9d:6e:5f:70:7c:e2:a2:3c:3c:6d:d3:
         a2:1d
-----BEGIN CERTIFICATE-----
MIICfTCCAeagAwIBAgIJANjT46bL48ztMA0GCSqGSIb3DQEBCwUAMC8xCzAJBgNV
BAYTAkZJMQ4wDAYDVQQKDAV3MS5maTEQMA4GA1UEAwwHUm9vdCBDQTAeFw0xNzAy
MTgxOTM2MzZaFw0xODAyMTgxOTM2MzZaMDUxCzAJBgNVBAYTAkZJMQ4wDAYDVQQK
DAV3MS5maTEWMBQGA1UEAwwNc2VydmVyNS53MS5maTCBnzANBgkqhkiG9w0BAQEF
AAOBjQAwgYkCgYEAo5np4uEXYDtwNBp0XEbjuL27qsnz7vsSMKBpw3Q4gDq6I1LH
wWrPut1B49JpNaSmYGwxH4W9Vmx7CWPNp1FrhECQd36XaHs4tcQVO3Q3NCi6euLX
hFN4dk0Wt7jfCXLnhyZ0LATKxc4p9bTO2yjrRUdCj+2IWqMjSZt7vDnhAVMCAwEA
AaOBmjCBlzAJBgNVHRMEAjAAMB0GA1UdDgQWBBQzFp07FxWCKzRuOOjMIr9Jp14q
KzAfBgNVHSMEGDAWgBS4kt79ihizMMOfVfMzXbTIKYpBFDA1BggrBgEFBQcBAQQp
MCcwJQYIKwYBBQUHMAGGGWh0dHA6Ly9zZXJ2ZXIudzEuZmk6ODg4OC8wEwYDVR0l
BAwwCgYIKwYBBQUHAwIwDQYJKoZIhvcNAQELBQADgYEAimgiSHHrn8IwF50nPBgr
jQ1woYC3ZP86uWxkUdhXqEmq5vof50GhLSeVuoNsi5p4TLFRlrqhXmMjv6pXJigz
VAE4o0Tdlr1bkuk2ZxpmEU8KC1JtvyCgeXhhjdlrOKCkx6CZZs1X5JnN5/MA6Cl0
mdGDp51uX3B84qI8PG3Toh0=
-----END CERTIFICATE-----
