Certificate:
    Data:
        Version: 3 (0x2)
        Serial Number: 15624081837803162857 (0xd8d3e3a6cbe3cce9)
    Signature Algorithm: sha256WithRSAEncryption
        Issuer: C=FI, O=w1.fi, CN=Root CA
        Validity
            Not Before: Sep 30 18:13:57 2016 GMT
            Not After : Sep 30 18:13:57 2017 GMT
        Subject: C=FI, O=w1.fi, CN=server.w1.fi
        Subject Public Key Info:
            Public Key Algorithm: rsaEncryption
                Public-Key: (1024 bit)
                Modulus:
                    00:ba:a0:77:55:22:14:85:55:65:9b:64:2c:ad:ed:
                    9b:dd:65:31:c9:da:60:50:ce:38:d6:34:dc:e8:bc:
                    1b:9e:30:e7:12:e3:53:6c:c9:ed:48:03:79:81:69:
                    98:ce:8a:b8:77:47:36:45:cf:c6:e0:f1:7b:1e:71:
                    89:54:f7:01:cc:22:ad:a0:42:b1:a8:35:9e:60:aa:
                    3a:98:51:d0:ff:1f:ee:be:8d:0a:63:fb:a2:39:17:
                    f2:64:61:f6:65:02:32:79:74:e1:9f:d1:89:65:55:
                    a9:c3:20:9e:bf:69:56:b3:f7:4f:3f:a9:54:c2:da:
                    8f:3c:af:f2:75:54:fa:7e:81
                Exponent: 65537 (0x10001)
        X509v3 extensions:
            X509v3 Basic Constraints: 
                CA:FALSE
            X509v3 Subject Key Identifier: 
                31:4F:10:5C:67:9F:BE:4E:88:D6:DC:C5:AB:9E:12:88:86:69:02:4F
            X509v3 Authority Key Identifier: 
                keyid:B8:92:DE:FD:8A:18:B3:30:C3:9F:55:F3:33:5D:B4:C8:29:8A:41:14

            Authority Information Access: 
                OCSP - URI:http://server.w1.fi:8888/

            X509v3 Subject Alternative Name: 
                DNS:server.w1.fi
            X509v3 Extended Key Usage: 
                TLS Web Server Authentication
    Signature Algorithm: sha256WithRSAEncryption
         24:da:48:be:a8:ae:6e:25:ed:12:bd:f5:a3:32:1f:40:4c:ab:
         50:87:23:b1:46:45:b0:e5:9b:02:ad:c9:d3:fb:c0:52:78:b5:
         91:2a:d4:8f:f8:c8:a4:48:b4:66:f7:2e:f1:cf:8c:3a:7a:54:
         fc:e2:41:a7:af:e3:d1:66:d6:02:d8:93:de:52:b2:c2:6e:d9:
         7a:bd:8c:ce:e5:dc:3b:0b:7a:f6:fc:a0:4e:9c:64:84:14:3f:
         9b:24:fc:d0:8f:9c:78:c8:57:0f:32:dd:ed:97:f1:c1:a2:b3:
         0a:14:9e:c8:35:68:30:1a:10:22:14:66:4a:6b:a4:47:b4:c6:
         4f:3b
-----BEGIN CERTIFICATE-----
MIIClTCCAf6gAwIBAgIJANjT46bL48zpMA0GCSqGSIb3DQEBCwUAMC8xCzAJBgNV
BAYTAkZJMQ4wDAYDVQQKDAV3MS5maTEQMA4GA1UEAwwHUm9vdCBDQTAeFw0xNjA5
MzAxODEzNTdaFw0xNzA5MzAxODEzNTdaMDQxCzAJBgNVBAYTAkZJMQ4wDAYDVQQK
DAV3MS5maTEVMBMGA1UEAwwMc2VydmVyLncxLmZpMIGfMA0GCSqGSIb3DQEBAQUA
A4GNADCBiQKBgQC6oHdVIhSFVWWbZCyt7ZvdZTHJ2mBQzjjWNNzovBueMOcS41Ns
ye1IA3mBaZjOirh3RzZFz8bg8XsecYlU9wHMIq2gQrGoNZ5gqjqYUdD/H+6+jQpj
+6I5F/JkYfZlAjJ5dOGf0YllVanDIJ6/aVaz908/qVTC2o88r/J1VPp+gQIDAQAB
o4GzMIGwMAkGA1UdEwQCMAAwHQYDVR0OBBYEFDFPEFxnn75OiNbcxaueEoiGaQJP
MB8GA1UdIwQYMBaAFLiS3v2KGLMww59V8zNdtMgpikEUMDUGCCsGAQUFBwEBBCkw
JzAlBggrBgEFBQcwAYYZaHR0cDovL3NlcnZlci53MS5maTo4ODg4LzAXBgNVHREE
EDAOggxzZXJ2ZXIudzEuZmkwEwYDVR0lBAwwCgYIKwYBBQUHAwEwDQYJKoZIhvcN
AQELBQADgYEAJNpIvqiubiXtEr31ozIfQEyrUIcjsUZFsOWbAq3J0/vAUni1kSrU
j/jIpEi0Zvcu8c+MOnpU/OJBp6/j0WbWAtiT3lKywm7Zer2MzuXcOwt69vygTpxk
hBQ/myT80I+ceMhXDzLd7ZfxwaKzChSeyDVoMBoQIhRmSmukR7TGTzs=
-----END CERTIFICATE-----
