Certificate:
    Data:
        Version: 3 (0x2)
        Serial Number: 15624081837803162841 (0xd8d3e3a6cbe3ccd9)
    Signature Algorithm: sha1WithRSAEncryption
        Issuer: C=FI, O=w1.fi, CN=Root CA
        Validity
            Not Before: Feb 19 12:18:22 2015 GMT
            Not After : Feb 19 12:18:22 2016 GMT
        Subject: C=FI, O=w1.fi, CN=server6.w1.fi
        Subject Public Key Info:
            Public Key Algorithm: rsaEncryption
                Public-Key: (1024 bit)
                Modulus:
                    00:ca:30:1e:fd:13:6a:02:28:51:9a:0e:a9:1e:72:
                    7e:e7:5a:c8:cb:0c:7e:8a:99:81:8d:05:b3:09:b0:
                    a9:86:e7:ae:44:fa:e0:c7:ee:f3:18:b4:31:65:e3:
                    05:6f:66:4e:e3:e4:85:81:9b:47:7f:5f:b5:16:2b:
                    b0:59:91:9c:c5:55:d3:d3:ca:2c:81:ce:f0:27:a8:
                    54:de:0e:4f:d8:f0:11:bd:0b:10:56:38:26:df:a9:
                    3a:95:15:93:a6:16:ed:d2:1e:b4:b5:c0:a8:61:8e:
                    ae:10:04:fd:e6:26:ca:4a:0d:90:4b:b9:ac:c9:94:
                    f2:b1:6b:97:6b:60:24:ea:bd
                Exponent: 65537 (0x10001)
        X509v3 extensions:
            X509v3 Basic Constraints: 
                CA:FALSE
            X509v3 Subject Key Identifier: 
                C7:C6:EF:F5:61:D2:A0:08:81:6A:6B:44:2C:F5:72:F7:DA:DE:5B:B9
            X509v3 Authority Key Identifier: 
                keyid:B8:92:DE:FD:8A:18:B3:30:C3:9F:55:F3:33:5D:B4:C8:29:8A:41:14

            Authority Information Access: 
                OCSP - URI:http://server.w1.fi:8888/

            X509v3 Extended Key Usage: 
                TLS Web Client Authentication, TLS Web Server Authentication
    Signature Algorithm: sha1WithRSAEncryption
         b8:35:8c:b6:18:ac:e9:f6:cb:2c:df:d8:50:88:48:50:33:50:
         fa:92:21:94:b7:82:04:0c:c2:c4:16:bc:dd:2f:75:f8:9d:1a:
         d5:1a:50:dc:7c:97:78:10:25:33:ba:01:6d:47:b8:28:4f:7c:
         d8:c4:a6:85:0d:f5:84:5f:31:68:1e:44:13:16:fd:ce:8b:98:
         39:46:03:de:aa:62:16:ee:ae:aa:15:27:4a:f2:9d:9c:1f:5a:
         61:04:ef:3a:7b:c4:5a:3d:a1:d0:2e:f6:31:ea:92:7e:5f:6b:
         4d:d3:06:d2:ee:a9:4a:56:68:38:76:25:58:e0:07:fb:d5:d8:
         fa:b0
-----BEGIN CERTIFICATE-----
MIIChzCCAfCgAwIBAgIJANjT46bL48zZMA0GCSqGSIb3DQEBBQUAMC8xCzAJBgNV
BAYTAkZJMQ4wDAYDVQQKDAV3MS5maTEQMA4GA1UEAwwHUm9vdCBDQTAeFw0xNTAy
MTkxMjE4MjJaFw0xNjAyMTkxMjE4MjJaMDUxCzAJBgNVBAYTAkZJMQ4wDAYDVQQK
DAV3MS5maTEWMBQGA1UEAwwNc2VydmVyNi53MS5maTCBnzANBgkqhkiG9w0BAQEF
AAOBjQAwgYkCgYEAyjAe/RNqAihRmg6pHnJ+51rIywx+ipmBjQWzCbCphueuRPrg
x+7zGLQxZeMFb2ZO4+SFgZtHf1+1FiuwWZGcxVXT08osgc7wJ6hU3g5P2PARvQsQ
Vjgm36k6lRWTphbt0h60tcCoYY6uEAT95ibKSg2QS7msyZTysWuXa2Ak6r0CAwEA
AaOBpDCBoTAJBgNVHRMEAjAAMB0GA1UdDgQWBBTHxu/1YdKgCIFqa0Qs9XL32t5b
uTAfBgNVHSMEGDAWgBS4kt79ihizMMOfVfMzXbTIKYpBFDA1BggrBgEFBQcBAQQp
MCcwJQYIKwYBBQUHMAGGGWh0dHA6Ly9zZXJ2ZXIudzEuZmk6ODg4OC8wHQYDVR0l
BBYwFAYIKwYBBQUHAwIGCCsGAQUFBwMBMA0GCSqGSIb3DQEBBQUAA4GBALg1jLYY
rOn2yyzf2FCISFAzUPqSIZS3ggQMwsQWvN0vdfidGtUaUNx8l3gQJTO6AW1HuChP
fNjEpoUN9YRfMWgeRBMW/c6LmDlGA96qYhburqoVJ0rynZwfWmEE7zp7xFo9odAu
9jHqkn5fa03TBtLuqUpWaDh2JVjgB/vV2Pqw
-----END CERTIFICATE-----
