Certificate:
    Data:
        Version: 3 (0x2)
        Serial Number: 15624081837803162832 (0xd8d3e3a6cbe3ccd0)
    Signature Algorithm: sha256WithRSAEncryption
        Issuer: C=FI, O=w1.fi, CN=Root CA
        Validity
            Not Before: Sep 29 21:11:22 2014 GMT
            Not After : Sep 29 21:11:22 2015 GMT
        Subject: C=FI, O=w1.fi, CN=server.w1.fi
        Subject Public Key Info:
            Public Key Algorithm: rsaEncryption
                Public-Key: (1024 bit)
                Modulus:
                    00:ba:a0:77:55:22:14:85:55:65:9b:64:2c:ad:ed:
                    9b:dd:65:31:c9:da:60:50:ce:38:d6:34:dc:e8:bc:
                    1b:9e:30:e7:12:e3:53:6c:c9:ed:48:03:79:81:69:
                    98:ce:8a:b8:77:47:36:45:cf:c6:e0:f1:7b:1e:71:
                    89:54:f7:01:cc:22:ad:a0:42:b1:a8:35:9e:60:aa:
                    3a:98:51:d0:ff:1f:ee:be:8d:0a:63:fb:a2:39:17:
                    f2:64:61:f6:65:02:32:79:74:e1:9f:d1:89:65:55:
                    a9:c3:20:9e:bf:69:56:b3:f7:4f:3f:a9:54:c2:da:
                    8f:3c:af:f2:75:54:fa:7e:81
                Exponent: 65537 (0x10001)
        X509v3 extensions:
            X509v3 Basic Constraints: 
                CA:FALSE
            X509v3 Subject Key Identifier: 
                31:4F:10:5C:67:9F:BE:4E:88:D6:DC:C5:AB:9E:12:88:86:69:02:4F
            X509v3 Authority Key Identifier: 
                keyid:B8:92:DE:FD:8A:18:B3:30:C3:9F:55:F3:33:5D:B4:C8:29:8A:41:14

            Authority Information Access: 
                OCSP - URI:http://server.w1.fi:8888/

            X509v3 Subject Alternative Name: 
                DNS:server.w1.fi
            X509v3 Extended Key Usage: 
                TLS Web Server Authentication
    Signature Algorithm: sha256WithRSAEncryption
         92:b7:19:2f:15:84:00:c6:68:01:ba:96:67:11:df:7d:0c:1e:
         45:eb:59:e5:64:ad:db:f0:23:ce:22:af:a0:35:a2:6f:99:96:
         9d:2d:bc:b5:8d:58:36:c7:71:f4:fb:c8:a5:e8:44:45:52:7e:
         1e:44:dd:99:3b:1c:40:f1:f7:73:ec:f9:b7:fc:06:cc:a9:a5:
         37:41:d1:20:2b:b5:93:75:26:1b:46:2e:3d:25:a3:5e:e9:7e:
         73:37:9d:e7:71:6f:bb:21:22:cc:31:3e:a2:3f:18:05:ca:35:
         d2:98:b8:53:6b:92:ac:73:10:8d:8a:09:a4:e3:46:ad:28:72:
         ab:51
-----BEGIN CERTIFICATE-----
MIIClTCCAf6gAwIBAgIJANjT46bL48zQMA0GCSqGSIb3DQEBCwUAMC8xCzAJBgNV
BAYTAkZJMQ4wDAYDVQQKDAV3MS5maTEQMA4GA1UEAwwHUm9vdCBDQTAeFw0xNDA5
MjkyMTExMjJaFw0xNTA5MjkyMTExMjJaMDQxCzAJBgNVBAYTAkZJMQ4wDAYDVQQK
DAV3MS5maTEVMBMGA1UEAwwMc2VydmVyLncxLmZpMIGfMA0GCSqGSIb3DQEBAQUA
A4GNADCBiQKBgQC6oHdVIhSFVWWbZCyt7ZvdZTHJ2mBQzjjWNNzovBueMOcS41Ns
ye1IA3mBaZjOirh3RzZFz8bg8XsecYlU9wHMIq2gQrGoNZ5gqjqYUdD/H+6+jQpj
+6I5F/JkYfZlAjJ5dOGf0YllVanDIJ6/aVaz908/qVTC2o88r/J1VPp+gQIDAQAB
o4GzMIGwMAkGA1UdEwQCMAAwHQYDVR0OBBYEFDFPEFxnn75OiNbcxaueEoiGaQJP
MB8GA1UdIwQYMBaAFLiS3v2KGLMww59V8zNdtMgpikEUMDUGCCsGAQUFBwEBBCkw
JzAlBggrBgEFBQcwAYYZaHR0cDovL3NlcnZlci53MS5maTo4ODg4LzAXBgNVHREE
EDAOggxzZXJ2ZXIudzEuZmkwEwYDVR0lBAwwCgYIKwYBBQUHAwEwDQYJKoZIhvcN
AQELBQADgYEAkrcZLxWEAMZoAbqWZxHffQweRetZ5WSt2/AjziKvoDWib5mWnS28
tY1YNsdx9PvIpehERVJ+HkTdmTscQPH3c+z5t/wGzKmlN0HRICu1k3UmG0YuPSWj
Xul+czed53FvuyEizDE+oj8YBco10pi4U2uSrHMQjYoJpONGrShyq1E=
-----END CERTIFICATE-----
