Certificate:
    Data:
        Version: 3 (0x2)
        Serial Number: 15624081837803162852 (0xd8d3e3a6cbe3cce4)
    Signature Algorithm: sha256WithRSAEncryption
        Issuer: C=FI, O=w1.fi, CN=Root CA
        Validity
            Not Before: Feb 19 16:39:44 2016 GMT
            Not After : Feb 18 16:39:44 2017 GMT
        Subject: C=FI, O=w1.fi, CN=server6.w1.fi
        Subject Public Key Info:
            Public Key Algorithm: rsaEncryption
                Public-Key: (1024 bit)
                Modulus:
                    00:ca:30:1e:fd:13:6a:02:28:51:9a:0e:a9:1e:72:
                    7e:e7:5a:c8:cb:0c:7e:8a:99:81:8d:05:b3:09:b0:
                    a9:86:e7:ae:44:fa:e0:c7:ee:f3:18:b4:31:65:e3:
                    05:6f:66:4e:e3:e4:85:81:9b:47:7f:5f:b5:16:2b:
                    b0:59:91:9c:c5:55:d3:d3:ca:2c:81:ce:f0:27:a8:
                    54:de:0e:4f:d8:f0:11:bd:0b:10:56:38:26:df:a9:
                    3a:95:15:93:a6:16:ed:d2:1e:b4:b5:c0:a8:61:8e:
                    ae:10:04:fd:e6:26:ca:4a:0d:90:4b:b9:ac:c9:94:
                    f2:b1:6b:97:6b:60:24:ea:bd
                Exponent: 65537 (0x10001)
        X509v3 extensions:
            X509v3 Basic Constraints: 
                CA:FALSE
            X509v3 Subject Key Identifier: 
                C7:C6:EF:F5:61:D2:A0:08:81:6A:6B:44:2C:F5:72:F7:DA:DE:5B:B9
            X509v3 Authority Key Identifier: 
                keyid:B8:92:DE:FD:8A:18:B3:30:C3:9F:55:F3:33:5D:B4:C8:29:8A:41:14

            Authority Information Access: 
                OCSP - URI:http://server.w1.fi:8888/

            X509v3 Extended Key Usage: 
                TLS Web Client Authentication, TLS Web Server Authentication
    Signature Algorithm: sha256WithRSAEncryption
         23:91:f7:da:2a:7d:a4:2c:81:e1:0e:3f:43:fb:cc:67:3d:11:
         f2:4b:b8:2c:2c:41:d0:90:13:38:6a:5a:12:ea:a7:f1:52:b4:
         4b:5e:ba:98:b9:b4:36:fc:fe:88:53:2d:4a:f7:08:8f:40:49:
         aa:90:60:a7:ee:5f:38:af:66:11:f8:31:2b:48:b9:7e:98:1c:
         ed:38:68:80:b2:18:7e:e9:4f:07:48:7e:a5:ab:fb:e4:46:a6:
         2c:e7:66:67:93:bd:41:7f:49:d8:c1:e5:1c:08:c5:ed:17:0c:
         f4:d9:3a:d8:bb:15:4a:44:c6:c7:42:3a:bf:c5:0f:df:8e:a1:
         05:7f
-----BEGIN CERTIFICATE-----
MIIChzCCAfCgAwIBAgIJANjT46bL48zkMA0GCSqGSIb3DQEBCwUAMC8xCzAJBgNV
BAYTAkZJMQ4wDAYDVQQKDAV3MS5maTEQMA4GA1UEAwwHUm9vdCBDQTAeFw0xNjAy
MTkxNjM5NDRaFw0xNzAyMTgxNjM5NDRaMDUxCzAJBgNVBAYTAkZJMQ4wDAYDVQQK
DAV3MS5maTEWMBQGA1UEAwwNc2VydmVyNi53MS5maTCBnzANBgkqhkiG9w0BAQEF
AAOBjQAwgYkCgYEAyjAe/RNqAihRmg6pHnJ+51rIywx+ipmBjQWzCbCphueuRPrg
x+7zGLQxZeMFb2ZO4+SFgZtHf1+1FiuwWZGcxVXT08osgc7wJ6hU3g5P2PARvQsQ
Vjgm36k6lRWTphbt0h60tcCoYY6uEAT95ibKSg2QS7msyZTysWuXa2Ak6r0CAwEA
AaOBpDCBoTAJBgNVHRMEAjAAMB0GA1UdDgQWBBTHxu/1YdKgCIFqa0Qs9XL32t5b
uTAfBgNVHSMEGDAWgBS4kt79ihizMMOfVfMzXbTIKYpBFDA1BggrBgEFBQcBAQQp
MCcwJQYIKwYBBQUHMAGGGWh0dHA6Ly9zZXJ2ZXIudzEuZmk6ODg4OC8wHQYDVR0l
BBYwFAYIKwYBBQUHAwIGCCsGAQUFBwMBMA0GCSqGSIb3DQEBCwUAA4GBACOR99oq
faQsgeEOP0P7zGc9EfJLuCwsQdCQEzhqWhLqp/FStEteupi5tDb8/ohTLUr3CI9A
SaqQYKfuXzivZhH4MStIuX6YHO04aICyGH7pTwdIfqWr++RGpiznZmeTvUF/SdjB
5RwIxe0XDPTZOti7FUpExsdCOr/FD9+OoQV/
-----END CERTIFICATE-----
