Certificate:
    Data:
        Version: 3 (0x2)
        Serial Number: 15624081837803162902 (0xd8d3e3a6cbe3cd16)
    Signature Algorithm: sha256WithRSAEncryption
        Issuer: C=FI, O=w1.fi, CN=Root CA
        Validity
            Not Before: Oct  1 15:42:04 2017 GMT
            Not After : Oct  1 15:42:04 2018 GMT
        Subject: C=FI, O=w1.fi, CN=Test User
        Subject Public Key Info:
            Public Key Algorithm: rsaEncryption
                Public-Key: (1024 bit)
                Modulus:
                    00:a6:96:2e:9b:22:8c:df:94:be:8b:89:49:f6:78:
                    76:a2:60:7e:14:95:f3:96:fe:ab:19:25:03:34:64:
                    74:01:3e:a8:9f:7c:f1:47:61:60:4c:82:92:28:7c:
                    2b:a0:0e:cb:87:bf:59:eb:d7:f3:61:22:3b:14:f3:
                    ab:31:f6:5a:95:1f:b8:7a:b8:2c:3c:a9:61:53:78:
                    9b:e8:3e:50:ec:c2:d6:44:e7:43:cd:bc:3e:4e:e7:
                    46:fe:92:9e:c3:98:0f:29:58:c8:cb:89:01:75:47:
                    e9:95:57:0f:76:c5:2f:05:5e:c7:1e:0d:f2:3c:12:
                    63:5d:b9:54:19:af:7f:40:6b
                Exponent: 65537 (0x10001)
        X509v3 extensions:
            X509v3 Basic Constraints: 
                CA:FALSE
            X509v3 Subject Key Identifier: 
                81:DE:DF:E9:5A:00:1A:CA:67:D6:06:DD:65:B2:4E:C5:9A:04:43:7D
            X509v3 Authority Key Identifier: 
                keyid:B8:92:DE:FD:8A:18:B3:30:C3:9F:55:F3:33:5D:B4:C8:29:8A:41:14

            Authority Information Access: 
                OCSP - URI:http://server.w1.fi:8888/

            X509v3 Extended Key Usage: 
                TLS Web Client Authentication
    Signature Algorithm: sha256WithRSAEncryption
         bc:cf:10:42:b7:13:7f:1b:59:89:a7:27:2b:de:71:26:cc:2d:
         59:bb:c8:12:dd:56:7a:88:14:e1:b5:09:6e:f9:64:72:96:56:
         ed:2f:f9:00:e7:08:9c:8b:5c:fe:cf:a2:9d:bd:48:80:95:41:
         e4:3e:ce:75:4a:41:a6:49:77:e1:48:0b:29:dd:ee:d1:f3:68:
         7c:94:7c:95:2a:7f:d5:a9:a5:a6:a4:b2:9b:8e:70:ec:05:3d:
         46:62:37:dc:ea:71:ae:32:0e:a5:ed:77:26:d4:e0:b5:0f:bd:
         d5:8f:6a:99:65:75:58:57:31:02:78:d5:e5:b0:ae:68:af:d5:
         0d:92
-----BEGIN CERTIFICATE-----
MIICeTCCAeKgAwIBAgIJANjT46bL480WMA0GCSqGSIb3DQEBCwUAMC8xCzAJBgNV
BAYTAkZJMQ4wDAYDVQQKDAV3MS5maTEQMA4GA1UEAwwHUm9vdCBDQTAeFw0xNzEw
MDExNTQyMDRaFw0xODEwMDExNTQyMDRaMDExCzAJBgNVBAYTAkZJMQ4wDAYDVQQK
DAV3MS5maTESMBAGA1UEAwwJVGVzdCBVc2VyMIGfMA0GCSqGSIb3DQEBAQUAA4GN
ADCBiQKBgQCmli6bIozflL6LiUn2eHaiYH4UlfOW/qsZJQM0ZHQBPqiffPFHYWBM
gpIofCugDsuHv1nr1/NhIjsU86sx9lqVH7h6uCw8qWFTeJvoPlDswtZE50PNvD5O
50b+kp7DmA8pWMjLiQF1R+mVVw92xS8FXsceDfI8EmNduVQZr39AawIDAQABo4Ga
MIGXMAkGA1UdEwQCMAAwHQYDVR0OBBYEFIHe3+laABrKZ9YG3WWyTsWaBEN9MB8G
A1UdIwQYMBaAFLiS3v2KGLMww59V8zNdtMgpikEUMDUGCCsGAQUFBwEBBCkwJzAl
BggrBgEFBQcwAYYZaHR0cDovL3NlcnZlci53MS5maTo4ODg4LzATBgNVHSUEDDAK
BggrBgEFBQcDAjANBgkqhkiG9w0BAQsFAAOBgQC8zxBCtxN/G1mJpycr3nEmzC1Z
u8gS3VZ6iBThtQlu+WRyllbtL/kA5wici1z+z6KdvUiAlUHkPs51SkGmSXfhSAsp
3e7R82h8lHyVKn/VqaWmpLKbjnDsBT1GYjfc6nGuMg6l7Xcm1OC1D73Vj2qZZXVY
VzECeNXlsK5or9UNkg==
-----END CERTIFICATE-----
