Certificate:
    Data:
        Version: 3 (0x2)
        Serial Number: 15624081837803162848 (0xd8d3e3a6cbe3cce0)
    Signature Algorithm: sha256WithRSAEncryption
        Issuer: C=FI, O=w1.fi, CN=Root CA
        Validity
            Not Before: Sep 30 21:07:18 2015 GMT
            Not After : Sep 29 21:07:18 2016 GMT
        Subject: C=FI, O=w1.fi, CN=Test User
        Subject Public Key Info:
            Public Key Algorithm: rsaEncryption
                Public-Key: (1024 bit)
                Modulus:
                    00:a6:96:2e:9b:22:8c:df:94:be:8b:89:49:f6:78:
                    76:a2:60:7e:14:95:f3:96:fe:ab:19:25:03:34:64:
                    74:01:3e:a8:9f:7c:f1:47:61:60:4c:82:92:28:7c:
                    2b:a0:0e:cb:87:bf:59:eb:d7:f3:61:22:3b:14:f3:
                    ab:31:f6:5a:95:1f:b8:7a:b8:2c:3c:a9:61:53:78:
                    9b:e8:3e:50:ec:c2:d6:44:e7:43:cd:bc:3e:4e:e7:
                    46:fe:92:9e:c3:98:0f:29:58:c8:cb:89:01:75:47:
                    e9:95:57:0f:76:c5:2f:05:5e:c7:1e:0d:f2:3c:12:
                    63:5d:b9:54:19:af:7f:40:6b
                Exponent: 65537 (0x10001)
        X509v3 extensions:
            X509v3 Basic Constraints: 
                CA:FALSE
            X509v3 Subject Key Identifier: 
                81:DE:DF:E9:5A:00:1A:CA:67:D6:06:DD:65:B2:4E:C5:9A:04:43:7D
            X509v3 Authority Key Identifier: 
                keyid:B8:92:DE:FD:8A:18:B3:30:C3:9F:55:F3:33:5D:B4:C8:29:8A:41:14

            Authority Information Access: 
                OCSP - URI:http://server.w1.fi:8888/

            X509v3 Extended Key Usage: 
                TLS Web Client Authentication
    Signature Algorithm: sha256WithRSAEncryption
         27:11:93:4d:7b:a5:ce:2a:16:87:76:ea:c5:42:df:6c:c0:f7:
         77:a9:3e:e9:4f:c7:a2:10:d1:47:53:f0:b1:c4:3f:b8:6a:65:
         b9:24:de:6b:ad:46:9d:7c:dc:e5:1e:4f:5b:e3:13:6d:e5:12:
         94:59:33:17:6f:25:c6:b7:56:3a:1a:7c:78:17:bb:4e:e9:82:
         19:cc:00:b0:44:4f:29:0a:ac:bd:9b:b4:db:41:e0:22:a9:36:
         d5:02:2d:14:c2:b0:61:aa:b7:3f:f4:26:b5:5c:5c:38:a6:4a:
         f7:f2:2a:3f:b2:33:10:a1:fb:68:b1:61:ac:3a:f9:b1:20:f8:
         e5:97
-----BEGIN CERTIFICATE-----
MIICeTCCAeKgAwIBAgIJANjT46bL48zgMA0GCSqGSIb3DQEBCwUAMC8xCzAJBgNV
BAYTAkZJMQ4wDAYDVQQKDAV3MS5maTEQMA4GA1UEAwwHUm9vdCBDQTAeFw0xNTA5
MzAyMTA3MThaFw0xNjA5MjkyMTA3MThaMDExCzAJBgNVBAYTAkZJMQ4wDAYDVQQK
DAV3MS5maTESMBAGA1UEAwwJVGVzdCBVc2VyMIGfMA0GCSqGSIb3DQEBAQUAA4GN
ADCBiQKBgQCmli6bIozflL6LiUn2eHaiYH4UlfOW/qsZJQM0ZHQBPqiffPFHYWBM
gpIofCugDsuHv1nr1/NhIjsU86sx9lqVH7h6uCw8qWFTeJvoPlDswtZE50PNvD5O
50b+kp7DmA8pWMjLiQF1R+mVVw92xS8FXsceDfI8EmNduVQZr39AawIDAQABo4Ga
MIGXMAkGA1UdEwQCMAAwHQYDVR0OBBYEFIHe3+laABrKZ9YG3WWyTsWaBEN9MB8G
A1UdIwQYMBaAFLiS3v2KGLMww59V8zNdtMgpikEUMDUGCCsGAQUFBwEBBCkwJzAl
BggrBgEFBQcwAYYZaHR0cDovL3NlcnZlci53MS5maTo4ODg4LzATBgNVHSUEDDAK
BggrBgEFBQcDAjANBgkqhkiG9w0BAQsFAAOBgQAnEZNNe6XOKhaHdurFQt9swPd3
qT7pT8eiENFHU/CxxD+4amW5JN5rrUadfNzlHk9b4xNt5RKUWTMXbyXGt1Y6Gnx4
F7tO6YIZzACwRE8pCqy9m7TbQeAiqTbVAi0UwrBhqrc/9Ca1XFw4pkr38io/sjMQ
oftosWGsOvmxIPjllw==
-----END CERTIFICATE-----
