Certificate:
    Data:
        Version: 3 (0x2)
        Serial Number: 15624081837803162859 (0xd8d3e3a6cbe3cceb)
    Signature Algorithm: sha256WithRSAEncryption
        Issuer: C=FI, O=w1.fi, CN=Root CA
        Validity
            Not Before: Sep 30 18:20:27 2016 GMT
            Not After : Sep 30 18:20:27 2017 GMT
        Subject: C=FI, O=w1.fi, CN=Test User
        Subject Public Key Info:
            Public Key Algorithm: rsaEncryption
                Public-Key: (1024 bit)
                Modulus:
                    00:a6:96:2e:9b:22:8c:df:94:be:8b:89:49:f6:78:
                    76:a2:60:7e:14:95:f3:96:fe:ab:19:25:03:34:64:
                    74:01:3e:a8:9f:7c:f1:47:61:60:4c:82:92:28:7c:
                    2b:a0:0e:cb:87:bf:59:eb:d7:f3:61:22:3b:14:f3:
                    ab:31:f6:5a:95:1f:b8:7a:b8:2c:3c:a9:61:53:78:
                    9b:e8:3e:50:ec:c2:d6:44:e7:43:cd:bc:3e:4e:e7:
                    46:fe:92:9e:c3:98:0f:29:58:c8:cb:89:01:75:47:
                    e9:95:57:0f:76:c5:2f:05:5e:c7:1e:0d:f2:3c:12:
                    63:5d:b9:54:19:af:7f:40:6b
                Exponent: 65537 (0x10001)
        X509v3 extensions:
            X509v3 Basic Constraints: 
                CA:FALSE
            X509v3 Subject Key Identifier: 
                81:DE:DF:E9:5A:00:1A:CA:67:D6:06:DD:65:B2:4E:C5:9A:04:43:7D
            X509v3 Authority Key Identifier: 
                keyid:B8:92:DE:FD:8A:18:B3:30:C3:9F:55:F3:33:5D:B4:C8:29:8A:41:14

            Authority Information Access: 
                OCSP - URI:http://server.w1.fi:8888/

            X509v3 Extended Key Usage: 
                TLS Web Client Authentication
    Signature Algorithm: sha256WithRSAEncryption
         47:2e:3d:23:86:d0:3e:fb:b5:7f:d6:32:6b:12:fb:7c:76:78:
         ec:82:db:ab:fa:5e:0f:1d:97:36:f9:de:b3:cb:fd:08:9e:d5:
         cd:3d:97:78:c5:00:ce:78:f1:39:3b:84:c9:d0:e6:17:58:ed:
         ac:e2:d2:a8:7a:fd:b9:19:a4:1c:57:08:17:8c:7f:70:88:82:
         d5:89:0f:1e:18:22:6d:62:69:4c:12:92:32:bc:cc:1b:a0:05:
         bc:af:7f:53:a9:dc:a9:55:48:e0:28:34:3e:60:3f:82:16:ac:
         70:a1:01:e7:75:cf:a0:72:ad:39:ad:52:65:a8:64:fa:7f:11:
         f2:f5
-----BEGIN CERTIFICATE-----
MIICeTCCAeKgAwIBAgIJANjT46bL48zrMA0GCSqGSIb3DQEBCwUAMC8xCzAJBgNV
BAYTAkZJMQ4wDAYDVQQKDAV3MS5maTEQMA4GA1UEAwwHUm9vdCBDQTAeFw0xNjA5
MzAxODIwMjdaFw0xNzA5MzAxODIwMjdaMDExCzAJBgNVBAYTAkZJMQ4wDAYDVQQK
DAV3MS5maTESMBAGA1UEAwwJVGVzdCBVc2VyMIGfMA0GCSqGSIb3DQEBAQUAA4GN
ADCBiQKBgQCmli6bIozflL6LiUn2eHaiYH4UlfOW/qsZJQM0ZHQBPqiffPFHYWBM
gpIofCugDsuHv1nr1/NhIjsU86sx9lqVH7h6uCw8qWFTeJvoPlDswtZE50PNvD5O
50b+kp7DmA8pWMjLiQF1R+mVVw92xS8FXsceDfI8EmNduVQZr39AawIDAQABo4Ga
MIGXMAkGA1UdEwQCMAAwHQYDVR0OBBYEFIHe3+laABrKZ9YG3WWyTsWaBEN9MB8G
A1UdIwQYMBaAFLiS3v2KGLMww59V8zNdtMgpikEUMDUGCCsGAQUFBwEBBCkwJzAl
BggrBgEFBQcwAYYZaHR0cDovL3NlcnZlci53MS5maTo4ODg4LzATBgNVHSUEDDAK
BggrBgEFBQcDAjANBgkqhkiG9w0BAQsFAAOBgQBHLj0jhtA++7V/1jJrEvt8dnjs
gtur+l4PHZc2+d6zy/0IntXNPZd4xQDOePE5O4TJ0OYXWO2s4tKoev25GaQcVwgX
jH9wiILViQ8eGCJtYmlMEpIyvMwboAW8r39TqdypVUjgKDQ+YD+CFqxwoQHndc+g
cq05rVJlqGT6fxHy9Q==
-----END CERTIFICATE-----
