Certificate:
    Data:
        Version: 3 (0x2)
        Serial Number: 15624081837803162824 (0xd8d3e3a6cbe3ccc8)
    Signature Algorithm: sha1WithRSAEncryption
        Issuer: C=FI, O=w1.fi, CN=Root CA
        Validity
            Not Before: Sep 29 16:04:21 2013 GMT
            Not After : Sep 29 16:04:21 2014 GMT
        Subject: C=FI, O=w1.fi, CN=Test User
        Subject Public Key Info:
            Public Key Algorithm: rsaEncryption
                Public-Key: (1024 bit)
                Modulus:
                    00:a6:96:2e:9b:22:8c:df:94:be:8b:89:49:f6:78:
                    76:a2:60:7e:14:95:f3:96:fe:ab:19:25:03:34:64:
                    74:01:3e:a8:9f:7c:f1:47:61:60:4c:82:92:28:7c:
                    2b:a0:0e:cb:87:bf:59:eb:d7:f3:61:22:3b:14:f3:
                    ab:31:f6:5a:95:1f:b8:7a:b8:2c:3c:a9:61:53:78:
                    9b:e8:3e:50:ec:c2:d6:44:e7:43:cd:bc:3e:4e:e7:
                    46:fe:92:9e:c3:98:0f:29:58:c8:cb:89:01:75:47:
                    e9:95:57:0f:76:c5:2f:05:5e:c7:1e:0d:f2:3c:12:
                    63:5d:b9:54:19:af:7f:40:6b
                Exponent: 65537 (0x10001)
        X509v3 extensions:
            X509v3 Basic Constraints: 
                CA:FALSE
            X509v3 Subject Key Identifier: 
                81:DE:DF:E9:5A:00:1A:CA:67:D6:06:DD:65:B2:4E:C5:9A:04:43:7D
            X509v3 Authority Key Identifier: 
                keyid:B8:92:DE:FD:8A:18:B3:30:C3:9F:55:F3:33:5D:B4:C8:29:8A:41:14

            Authority Information Access: 
                OCSP - URI:http://server.w1.fi:8888/

            X509v3 Extended Key Usage: 
                TLS Web Client Authentication
    Signature Algorithm: sha1WithRSAEncryption
         6a:81:f0:61:9e:79:2f:39:cc:3a:e3:29:ed:51:35:59:64:c3:
         7d:f9:2d:27:83:20:eb:4a:fa:94:37:ee:9d:c2:69:47:ed:f5:
         91:95:e2:2a:75:f9:4c:99:5e:e0:b1:98:9b:af:fe:ba:1e:86:
         49:88:12:ac:26:30:81:bb:e7:61:6b:6f:b3:e3:13:06:27:35:
         3b:15:7a:cb:f5:83:53:cc:7f:83:ae:36:18:f2:1f:b7:b8:f4:
         16:e3:4c:e5:43:84:ee:b8:e5:47:02:60:37:1f:a3:41:74:8f:
         db:0f:f8:d7:87:fa:24:65:ca:1a:54:9a:a7:d4:5c:79:7b:70:
         de:52
-----BEGIN CERTIFICATE-----
MIICeTCCAeKgAwIBAgIJANjT46bL48zIMA0GCSqGSIb3DQEBBQUAMC8xCzAJBgNV
BAYTAkZJMQ4wDAYDVQQKDAV3MS5maTEQMA4GA1UEAwwHUm9vdCBDQTAeFw0xMzA5
MjkxNjA0MjFaFw0xNDA5MjkxNjA0MjFaMDExCzAJBgNVBAYTAkZJMQ4wDAYDVQQK
DAV3MS5maTESMBAGA1UEAwwJVGVzdCBVc2VyMIGfMA0GCSqGSIb3DQEBAQUAA4GN
ADCBiQKBgQCmli6bIozflL6LiUn2eHaiYH4UlfOW/qsZJQM0ZHQBPqiffPFHYWBM
gpIofCugDsuHv1nr1/NhIjsU86sx9lqVH7h6uCw8qWFTeJvoPlDswtZE50PNvD5O
50b+kp7DmA8pWMjLiQF1R+mVVw92xS8FXsceDfI8EmNduVQZr39AawIDAQABo4Ga
MIGXMAkGA1UdEwQCMAAwHQYDVR0OBBYEFIHe3+laABrKZ9YG3WWyTsWaBEN9MB8G
A1UdIwQYMBaAFLiS3v2KGLMww59V8zNdtMgpikEUMDUGCCsGAQUFBwEBBCkwJzAl
BggrBgEFBQcwAYYZaHR0cDovL3NlcnZlci53MS5maTo4ODg4LzATBgNVHSUEDDAK
BggrBgEFBQcDAjANBgkqhkiG9w0BAQUFAAOBgQBqgfBhnnkvOcw64yntUTVZZMN9
+S0ngyDrSvqUN+6dwmlH7fWRleIqdflMmV7gsZibr/66HoZJiBKsJjCBu+dha2+z
4xMGJzU7FXrL9YNTzH+DrjYY8h+3uPQW40zlQ4TuuOVHAmA3H6NBdI/bD/jXh/ok
ZcoaVJqn1Fx5e3DeUg==
-----END CERTIFICATE-----
