Certificate:
    Data:
        Version: 3 (0x2)
        Serial Number: 15624081837803162833 (0xd8d3e3a6cbe3ccd1)
    Signature Algorithm: sha256WithRSAEncryption
        Issuer: C=FI, O=w1.fi, CN=Root CA
        Validity
            Not Before: Sep 29 21:13:00 2014 GMT
            Not After : Sep 29 21:13:00 2015 GMT
        Subject: C=FI, O=w1.fi, CN=Test User
        Subject Public Key Info:
            Public Key Algorithm: rsaEncryption
                Public-Key: (1024 bit)
                Modulus:
                    00:a6:96:2e:9b:22:8c:df:94:be:8b:89:49:f6:78:
                    76:a2:60:7e:14:95:f3:96:fe:ab:19:25:03:34:64:
                    74:01:3e:a8:9f:7c:f1:47:61:60:4c:82:92:28:7c:
                    2b:a0:0e:cb:87:bf:59:eb:d7:f3:61:22:3b:14:f3:
                    ab:31:f6:5a:95:1f:b8:7a:b8:2c:3c:a9:61:53:78:
                    9b:e8:3e:50:ec:c2:d6:44:e7:43:cd:bc:3e:4e:e7:
                    46:fe:92:9e:c3:98:0f:29:58:c8:cb:89:01:75:47:
                    e9:95:57:0f:76:c5:2f:05:5e:c7:1e:0d:f2:3c:12:
                    63:5d:b9:54:19:af:7f:40:6b
                Exponent: 65537 (0x10001)
        X509v3 extensions:
            X509v3 Basic Constraints: 
                CA:FALSE
            X509v3 Subject Key Identifier: 
                81:DE:DF:E9:5A:00:1A:CA:67:D6:06:DD:65:B2:4E:C5:9A:04:43:7D
            X509v3 Authority Key Identifier: 
                keyid:B8:92:DE:FD:8A:18:B3:30:C3:9F:55:F3:33:5D:B4:C8:29:8A:41:14

            Authority Information Access: 
                OCSP - URI:http://server.w1.fi:8888/

            X509v3 Extended Key Usage: 
                TLS Web Client Authentication
    Signature Algorithm: sha256WithRSAEncryption
         76:24:5a:f8:de:ef:8b:65:02:67:ab:8f:3a:42:88:22:35:40:
         48:df:97:91:9b:5a:d4:60:af:61:ef:53:7a:2c:76:04:5f:80:
         27:79:7e:1f:0a:ed:ab:71:0c:6e:90:7a:69:04:4e:21:cb:31:
         47:ee:e9:36:87:a9:f4:a1:dd:e9:8a:fd:41:cc:d2:ae:dd:47:
         66:d1:71:08:b2:e8:5e:e3:36:9e:98:c8:66:51:5b:41:95:02:
         29:fd:b6:46:d2:40:ec:0e:46:40:92:b1:b7:e2:28:6e:85:17:
         1e:8d:52:40:c8:20:ca:9b:ab:f0:10:30:8c:0b:5d:91:91:8c:
         ff:ca
-----BEGIN CERTIFICATE-----
MIICeTCCAeKgAwIBAgIJANjT46bL48zRMA0GCSqGSIb3DQEBCwUAMC8xCzAJBgNV
BAYTAkZJMQ4wDAYDVQQKDAV3MS5maTEQMA4GA1UEAwwHUm9vdCBDQTAeFw0xNDA5
MjkyMTEzMDBaFw0xNTA5MjkyMTEzMDBaMDExCzAJBgNVBAYTAkZJMQ4wDAYDVQQK
DAV3MS5maTESMBAGA1UEAwwJVGVzdCBVc2VyMIGfMA0GCSqGSIb3DQEBAQUAA4GN
ADCBiQKBgQCmli6bIozflL6LiUn2eHaiYH4UlfOW/qsZJQM0ZHQBPqiffPFHYWBM
gpIofCugDsuHv1nr1/NhIjsU86sx9lqVH7h6uCw8qWFTeJvoPlDswtZE50PNvD5O
50b+kp7DmA8pWMjLiQF1R+mVVw92xS8FXsceDfI8EmNduVQZr39AawIDAQABo4Ga
MIGXMAkGA1UdEwQCMAAwHQYDVR0OBBYEFIHe3+laABrKZ9YG3WWyTsWaBEN9MB8G
A1UdIwQYMBaAFLiS3v2KGLMww59V8zNdtMgpikEUMDUGCCsGAQUFBwEBBCkwJzAl
BggrBgEFBQcwAYYZaHR0cDovL3NlcnZlci53MS5maTo4ODg4LzATBgNVHSUEDDAK
BggrBgEFBQcDAjANBgkqhkiG9w0BAQsFAAOBgQB2JFr43u+LZQJnq486QogiNUBI
35eRm1rUYK9h71N6LHYEX4AneX4fCu2rcQxukHppBE4hyzFH7uk2h6n0od3piv1B
zNKu3Udm0XEIsuhe4zaemMhmUVtBlQIp/bZG0kDsDkZAkrG34ihuhRcejVJAyCDK
m6vwEDCMC12RkYz/yg==
-----END CERTIFICATE-----
